
hello-apo-riscv:     file format elf32-littleriscv


Disassembly of section .text:

00010094 <main>:

//int var_a = 40;
//int var_b =  2;

int main(int argc, char *argv[])
{
   10094:	fe010113          	addi	sp,sp,-32
   10098:	00112e23          	sw	ra,28(sp)
   1009c:	00812c23          	sw	s0,24(sp)
   100a0:	02010413          	addi	s0,sp,32
   100a4:	fea42623          	sw	a0,-20(s0)
   100a8:	feb42423          	sw	a1,-24(s0)

  /*
   * modify program to compute and print answer
   * of var_a + var_b
   */
  printf("Hello APO\n");
   100ac:	000137b7          	lui	a5,0x13
   100b0:	77c78513          	addi	a0,a5,1916 # 1377c <_reclaim_reent+0x120>
   100b4:	371000ef          	jal	ra,10c24 <puts>

  return 0;
   100b8:	00000793          	li	a5,0
}
   100bc:	00078513          	mv	a0,a5
   100c0:	01c12083          	lw	ra,28(sp)
   100c4:	01812403          	lw	s0,24(sp)
   100c8:	02010113          	addi	sp,sp,32
   100cc:	00008067          	ret

000100d0 <_read>:
int _read(int file, char *ptr, int len);
int
_read (int file,
       char * ptr,
       int len)
{
   100d0:	fe010113          	addi	sp,sp,-32
   100d4:	00812e23          	sw	s0,28(sp)
   100d8:	02010413          	addi	s0,sp,32
   100dc:	fea42623          	sw	a0,-20(s0)
   100e0:	feb42423          	sw	a1,-24(s0)
   100e4:	fec42223          	sw	a2,-28(s0)
	register int __a7 asm("a7") = __NR_read;
   100e8:	03f00893          	li	a7,63
	register int __a0 asm("a0") = file;
   100ec:	fec42503          	lw	a0,-20(s0)
	register char * __a1 asm("a1") = ptr;
   100f0:	fe842583          	lw	a1,-24(s0)
	register int __a2 asm("a2") = len;
   100f4:	fe442603          	lw	a2,-28(s0)
	__asm__ volatile (
   100f8:	00000073          	ecall
	"ecall\n\t"
	: "=r" (__a0)
	: "r" (__a7), "r" (__a0), "r" (__a1), "r"(__a2)
	: );
	return __a0 < 0 ? -1: __a0;
   100fc:	00050793          	mv	a5,a0
   10100:	0007d463          	bgez	a5,10108 <_read+0x38>
   10104:	fff00793          	li	a5,-1
}
   10108:	00078513          	mv	a0,a5
   1010c:	01c12403          	lw	s0,28(sp)
   10110:	02010113          	addi	sp,sp,32
   10114:	00008067          	ret

00010118 <_write>:
int _write(int file, const char *ptr, int len);
int
_write (int    file,
	const char * ptr,
	int    len)
{
   10118:	fe010113          	addi	sp,sp,-32
   1011c:	00812e23          	sw	s0,28(sp)
   10120:	02010413          	addi	s0,sp,32
   10124:	fea42623          	sw	a0,-20(s0)
   10128:	feb42423          	sw	a1,-24(s0)
   1012c:	fec42223          	sw	a2,-28(s0)
	register int __a7 asm("a7") = __NR_write;
   10130:	04000893          	li	a7,64
	register int __a0 asm("a0") = file;
   10134:	fec42503          	lw	a0,-20(s0)
	register const char * __a1 asm("a1") = ptr;
   10138:	fe842583          	lw	a1,-24(s0)
	register int __a2 asm("a2") = len;
   1013c:	fe442603          	lw	a2,-28(s0)
	__asm__ volatile (
   10140:	00000073          	ecall
	"ecall\n\t"
	: "=r" (__a0)
	: "r" (__a7), "r" (__a0), "r" (__a1), "r"(__a2)
	: );
	return __a0 < 0 ? -1: __a0;
   10144:	00050793          	mv	a5,a0
   10148:	0007d463          	bgez	a5,10150 <_write+0x38>
   1014c:	fff00793          	li	a5,-1
}
   10150:	00078513          	mv	a0,a5
   10154:	01c12403          	lw	s0,28(sp)
   10158:	02010113          	addi	sp,sp,32
   1015c:	00008067          	ret

00010160 <_lseek>:

int
_lseek (int file,
	int pos,
	int dir)
{
   10160:	fe010113          	addi	sp,sp,-32
   10164:	00812e23          	sw	s0,28(sp)
   10168:	02010413          	addi	s0,sp,32
   1016c:	fea42623          	sw	a0,-20(s0)
   10170:	feb42423          	sw	a1,-24(s0)
   10174:	fec42223          	sw	a2,-28(s0)
	UNUSED_PARAM(file);
	UNUSED_PARAM(pos);
	UNUSED_PARAM(dir);

	return -1;
   10178:	fff00793          	li	a5,-1
}
   1017c:	00078513          	mv	a0,a5
   10180:	01c12403          	lw	s0,28(sp)
   10184:	02010113          	addi	sp,sp,32
   10188:	00008067          	ret

0001018c <_openat>:
int _openat(int fd, const char *path, int flags,	...);
int
_openat (int fd, const char * path,
       int          flags,
       ...)
{
   1018c:	fb010113          	addi	sp,sp,-80
   10190:	02812623          	sw	s0,44(sp)
   10194:	03010413          	addi	s0,sp,48
   10198:	fca42e23          	sw	a0,-36(s0)
   1019c:	fcb42c23          	sw	a1,-40(s0)
   101a0:	fcc42a23          	sw	a2,-44(s0)
   101a4:	00d42623          	sw	a3,12(s0)
   101a8:	00e42823          	sw	a4,16(s0)
   101ac:	00f42a23          	sw	a5,20(s0)
   101b0:	01042c23          	sw	a6,24(s0)
   101b4:	01142e23          	sw	a7,28(s0)
	register int __a7 asm("a7") = __NR_openat;
   101b8:	03800893          	li	a7,56
	// use fd = -100 for normal open behaviour. Full openat not supported.
	register int __a0 asm("a0") = fd;
   101bc:	fdc42503          	lw	a0,-36(s0)
	register const char * __a1 asm("a1") = path;
   101c0:	fd842583          	lw	a1,-40(s0)
	register int __a2 asm("a2") = 0;
   101c4:	00000613          	li	a2,0
	register int __a3 asm("a3");

#ifdef O_CREAT
	if (flags & O_CREAT)
   101c8:	fd442783          	lw	a5,-44(s0)
   101cc:	2007f793          	andi	a5,a5,512
   101d0:	00078863          	beqz	a5,101e0 <_openat+0x54>
		__a2 |= KERNEL_O_CREAT;
   101d4:	00060793          	mv	a5,a2
   101d8:	0407e793          	ori	a5,a5,64
   101dc:	00078613          	mv	a2,a5
#endif
#ifdef O_EXCL
	if (flags & O_EXCL)
   101e0:	fd442703          	lw	a4,-44(s0)
   101e4:	000017b7          	lui	a5,0x1
   101e8:	80078793          	addi	a5,a5,-2048 # 800 <main-0xf894>
   101ec:	00f777b3          	and	a5,a4,a5
   101f0:	00078863          	beqz	a5,10200 <_openat+0x74>
		__a2 |= KERNEL_O_EXCL;
   101f4:	00060793          	mv	a5,a2
   101f8:	0807e793          	ori	a5,a5,128
   101fc:	00078613          	mv	a2,a5
#endif
#ifdef O_NOCTTY
	if (flags & O_NOCTTY)
   10200:	fd442703          	lw	a4,-44(s0)
   10204:	000087b7          	lui	a5,0x8
   10208:	00f777b3          	and	a5,a4,a5
   1020c:	00078863          	beqz	a5,1021c <_openat+0x90>
		__a2 |= KERNEL_O_NOCTTY;
   10210:	00060793          	mv	a5,a2
   10214:	1007e793          	ori	a5,a5,256
   10218:	00078613          	mv	a2,a5
#endif
#ifdef O_TRUNC
	if (flags & O_TRUNC)
   1021c:	fd442783          	lw	a5,-44(s0)
   10220:	4007f793          	andi	a5,a5,1024
   10224:	00078863          	beqz	a5,10234 <_openat+0xa8>
		__a2 |= KERNEL_O_TRUNC;
   10228:	00060793          	mv	a5,a2
   1022c:	2007e793          	ori	a5,a5,512
   10230:	00078613          	mv	a2,a5
#endif
#ifdef O_APPEND
	if (flags & O_APPEND)
   10234:	fd442783          	lw	a5,-44(s0)
   10238:	0087f793          	andi	a5,a5,8
   1023c:	00078863          	beqz	a5,1024c <_openat+0xc0>
		__a2 |= KERNEL_O_APPEND;
   10240:	00060793          	mv	a5,a2
   10244:	4007e793          	ori	a5,a5,1024
   10248:	00078613          	mv	a2,a5
#endif
#ifdef O_NONBLOCK
	if (flags & O_NONBLOCK)
   1024c:	fd442703          	lw	a4,-44(s0)
   10250:	000047b7          	lui	a5,0x4
   10254:	00f777b3          	and	a5,a4,a5
   10258:	00078c63          	beqz	a5,10270 <_openat+0xe4>
		__a2 |= KERNEL_O_NONBLOCK;
   1025c:	00060713          	mv	a4,a2
   10260:	000017b7          	lui	a5,0x1
   10264:	80078793          	addi	a5,a5,-2048 # 800 <main-0xf894>
   10268:	00f767b3          	or	a5,a4,a5
   1026c:	00078613          	mv	a2,a5
#ifdef O_DSYNC
	if (flags & O_DSYNC)
		__a2 |= KERNEL_O_DSYNC;
#endif
#ifdef O_SYNC
	if (flags & O_SYNC)
   10270:	fd442703          	lw	a4,-44(s0)
   10274:	000027b7          	lui	a5,0x2
   10278:	00f777b3          	and	a5,a4,a5
   1027c:	00078a63          	beqz	a5,10290 <_openat+0x104>
		__a2 |= KERNEL_O_SYNC;
   10280:	00060713          	mv	a4,a2
   10284:	001017b7          	lui	a5,0x101
   10288:	00f767b3          	or	a5,a4,a5
   1028c:	00078613          	mv	a2,a5
#ifdef O_RSYNC
	if (flags & O_RSYNC)
		__a2 |= KERNEL_O_RSYNC;
#endif
#ifdef O_DIRECTORY
	if (flags & O_DIRECTORY)
   10290:	fd442703          	lw	a4,-44(s0)
   10294:	002007b7          	lui	a5,0x200
   10298:	00f777b3          	and	a5,a4,a5
   1029c:	00078a63          	beqz	a5,102b0 <_openat+0x124>
		__a2 |= KERNEL_O_DIRECTORY;
   102a0:	00060713          	mv	a4,a2
   102a4:	000107b7          	lui	a5,0x10
   102a8:	00f767b3          	or	a5,a4,a5
   102ac:	00078613          	mv	a2,a5
#endif
#ifdef O_NOFOLLOW
	if (flags & O_NOFOLLOW)
   102b0:	fd442703          	lw	a4,-44(s0)
   102b4:	001007b7          	lui	a5,0x100
   102b8:	00f777b3          	and	a5,a4,a5
   102bc:	00078a63          	beqz	a5,102d0 <_openat+0x144>
		__a2 |= KERNEL_O_NOFOLLOW;
   102c0:	00060713          	mv	a4,a2
   102c4:	000207b7          	lui	a5,0x20
   102c8:	00f767b3          	or	a5,a4,a5
   102cc:	00078613          	mv	a2,a5
#endif
#ifdef O_CLOEXEC
	if (flags & O_CLOEXEC)
   102d0:	fd442703          	lw	a4,-44(s0)
   102d4:	000407b7          	lui	a5,0x40
   102d8:	00f777b3          	and	a5,a4,a5
   102dc:	00078a63          	beqz	a5,102f0 <_openat+0x164>
		__a2 |= KERNEL_O_CLOEXEC;
   102e0:	00060713          	mv	a4,a2
   102e4:	000807b7          	lui	a5,0x80
   102e8:	00f767b3          	or	a5,a4,a5
   102ec:	00078613          	mv	a2,a5
#endif

	if (flags & O_CREAT) {
   102f0:	fd442783          	lw	a5,-44(s0)
   102f4:	2007f793          	andi	a5,a5,512
   102f8:	02078663          	beqz	a5,10324 <_openat+0x198>
		va_list list;
		va_start(list, flags);
   102fc:	02040793          	addi	a5,s0,32
   10300:	fcf42823          	sw	a5,-48(s0)
   10304:	fd042783          	lw	a5,-48(s0)
   10308:	fec78793          	addi	a5,a5,-20 # 7ffec <__BSS_END__+0x67770>
   1030c:	fef42623          	sw	a5,-20(s0)
		__a3 = va_arg(list, int);
   10310:	fec42783          	lw	a5,-20(s0)
   10314:	00478713          	addi	a4,a5,4
   10318:	fee42623          	sw	a4,-20(s0)
   1031c:	0007a783          	lw	a5,0(a5)
   10320:	00078693          	mv	a3,a5
		va_end(list);
	}

	__asm__ volatile (
   10324:	00000073          	ecall
	"ecall\n\t"
	: "=r" (__a0)
	: "r" (__a7), "r" (__a0), "r" (__a1), "r"(__a2), "r"(__a3)
	: );
	return __a0 < 0 ? -1: __a0;
   10328:	00050793          	mv	a5,a0
   1032c:	0007d463          	bgez	a5,10334 <_openat+0x1a8>
   10330:	fff00793          	li	a5,-1
}
   10334:	00078513          	mv	a0,a5
   10338:	02c12403          	lw	s0,44(sp)
   1033c:	05010113          	addi	sp,sp,80
   10340:	00008067          	ret

00010344 <_close>:

int _close(int file);
int
_close (int file)
{
   10344:	fe010113          	addi	sp,sp,-32
   10348:	00812e23          	sw	s0,28(sp)
   1034c:	02010413          	addi	s0,sp,32
   10350:	fea42623          	sw	a0,-20(s0)
	register int __a7 asm("a7") = __NR_close;
   10354:	03900893          	li	a7,57
	register int __a0 asm("a0") = file;
   10358:	fec42503          	lw	a0,-20(s0)
	__asm__ volatile (
   1035c:	00000073          	ecall
	"ecall\n\t"
	: "=r" (__a0)
	: "r" (__a7), "r" (__a0)
	: );
	return __a0 < 0 ? -1: __a0;
   10360:	00050793          	mv	a5,a0
   10364:	0007d463          	bgez	a5,1036c <_close+0x28>
   10368:	fff00793          	li	a5,-1
}
   1036c:	00078513          	mv	a0,a5
   10370:	01c12403          	lw	s0,28(sp)
   10374:	02010113          	addi	sp,sp,32
   10378:	00008067          	ret

0001037c <_exit>:

void _exit(int n);
void
_exit (int n)
{
   1037c:	fe010113          	addi	sp,sp,-32
   10380:	00812e23          	sw	s0,28(sp)
   10384:	02010413          	addi	s0,sp,32
   10388:	fea42623          	sw	a0,-20(s0)
	register int __a7 asm("a7") = __NR_exit;
   1038c:	05d00893          	li	a7,93
	register int __a0 asm("a0") = n;
   10390:	fec42503          	lw	a0,-20(s0)

	while(1) __asm__ volatile (
   10394:	00000073          	ecall
   10398:	ffdff06f          	j	10394 <_exit+0x18>

0001039c <abort>:
	: );
}

void abort(void);
void abort(void)
{
   1039c:	ff010113          	addi	sp,sp,-16
   103a0:	00812623          	sw	s0,12(sp)
   103a4:	01010413          	addi	s0,sp,16
	while(1) __asm__ volatile (
   103a8:	00100073          	ebreak
   103ac:	ffdff06f          	j	103a8 <abort+0xc>

000103b0 <_kill>:
}

int _kill(int n, int m);
int
_kill (int n, int m)
{
   103b0:	fe010113          	addi	sp,sp,-32
   103b4:	00812e23          	sw	s0,28(sp)
   103b8:	02010413          	addi	s0,sp,32
   103bc:	fea42623          	sw	a0,-20(s0)
   103c0:	feb42423          	sw	a1,-24(s0)
  UNUSED_PARAM(n);
  UNUSED_PARAM(m);
  return -1;
   103c4:	fff00793          	li	a5,-1
}
   103c8:	00078513          	mv	a0,a5
   103cc:	01c12403          	lw	s0,28(sp)
   103d0:	02010113          	addi	sp,sp,32
   103d4:	00008067          	ret

000103d8 <_getpid>:

int _getpid(void);
int
_getpid (void)
{
   103d8:	ff010113          	addi	sp,sp,-16
   103dc:	00812623          	sw	s0,12(sp)
   103e0:	01010413          	addi	s0,sp,16
  return 1;
   103e4:	00100793          	li	a5,1
}
   103e8:	00078513          	mv	a0,a5
   103ec:	00c12403          	lw	s0,12(sp)
   103f0:	01010113          	addi	sp,sp,16
   103f4:	00008067          	ret

000103f8 <_sbrk>:


void *_sbrk(ptrdiff_t incr);
void *
_sbrk (ptrdiff_t incr)
{
   103f8:	fd010113          	addi	sp,sp,-48
   103fc:	02112623          	sw	ra,44(sp)
   10400:	02812423          	sw	s0,40(sp)
   10404:	03010413          	addi	s0,sp,48
   10408:	fca42e23          	sw	a0,-36(s0)
  extern char    _heap_stack_start;
  static char   *heap_end;
  char *        prev_heap_end;

  incr=(incr+3) & ~3;
   1040c:	fdc42783          	lw	a5,-36(s0)
   10410:	00378793          	addi	a5,a5,3
   10414:	ffc7f793          	andi	a5,a5,-4
   10418:	fcf42e23          	sw	a5,-36(s0)

  if (heap_end == NULL)
   1041c:	8201a783          	lw	a5,-2016(gp) # 14850 <heap_end.0>
   10420:	00079663          	bnez	a5,1042c <_sbrk+0x34>
    heap_end = & _heap_stack_start;
   10424:	82418713          	addi	a4,gp,-2012 # 14854 <_heap_stack_start>
   10428:	82e1a023          	sw	a4,-2016(gp) # 14850 <heap_end.0>

  prev_heap_end = heap_end;
   1042c:	8201a783          	lw	a5,-2016(gp) # 14850 <heap_end.0>
   10430:	fef42623          	sw	a5,-20(s0)

  if ((heap_end + incr > stack_ptr) && (&_heap_stack_start < stack_ptr))
   10434:	8201a703          	lw	a4,-2016(gp) # 14850 <heap_end.0>
   10438:	fdc42783          	lw	a5,-36(s0)
   1043c:	00f707b3          	add	a5,a4,a5
   10440:	00010713          	mv	a4,sp
   10444:	02f77463          	bgeu	a4,a5,1046c <_sbrk+0x74>
   10448:	00010713          	mv	a4,sp
   1044c:	82418793          	addi	a5,gp,-2012 # 14854 <_heap_stack_start>
   10450:	00e7fe63          	bgeu	a5,a4,1046c <_sbrk+0x74>
      /* Some of the libstdc++-v3 tests rely upon detecting
	 out of memory errors, so do not abort here.  */
#if 1
      extern void abort (void);

      _write (1, "_sbrk: Heap and stack collision\n", 32);
   10454:	02000613          	li	a2,32
   10458:	000137b7          	lui	a5,0x13
   1045c:	78878593          	addi	a1,a5,1928 # 13788 <_reclaim_reent+0x12c>
   10460:	00100513          	li	a0,1
   10464:	cb5ff0ef          	jal	ra,10118 <_write>

      abort ();
   10468:	f35ff0ef          	jal	ra,1039c <abort>
      errno = ENOMEM;
      return (caddr_t) -1;
#endif
    }

  heap_end += incr;
   1046c:	8201a703          	lw	a4,-2016(gp) # 14850 <heap_end.0>
   10470:	fdc42783          	lw	a5,-36(s0)
   10474:	00f70733          	add	a4,a4,a5
   10478:	82e1a023          	sw	a4,-2016(gp) # 14850 <heap_end.0>

  return /*(caddr_t)*/ prev_heap_end;
   1047c:	fec42783          	lw	a5,-20(s0)
}
   10480:	00078513          	mv	a0,a5
   10484:	02c12083          	lw	ra,44(sp)
   10488:	02812403          	lw	s0,40(sp)
   1048c:	03010113          	addi	sp,sp,48
   10490:	00008067          	ret

00010494 <_fstat>:

int _fstat(int file, struct stat *st);
int
_fstat (int file, struct stat * st)
{
   10494:	fe010113          	addi	sp,sp,-32
   10498:	00812e23          	sw	s0,28(sp)
   1049c:	02010413          	addi	s0,sp,32
   104a0:	fea42623          	sw	a0,-20(s0)
   104a4:	feb42423          	sw	a1,-24(s0)
  UNUSED_PARAM(file);
  UNUSED_PARAM(st);
  return -1;
   104a8:	fff00793          	li	a5,-1
}
   104ac:	00078513          	mv	a0,a5
   104b0:	01c12403          	lw	s0,28(sp)
   104b4:	02010113          	addi	sp,sp,32
   104b8:	00008067          	ret

000104bc <_stat>:

int _stat (const char *fname, struct stat *st);
int _stat (const char *fname, struct stat *st)
{
   104bc:	fe010113          	addi	sp,sp,-32
   104c0:	00812e23          	sw	s0,28(sp)
   104c4:	02010413          	addi	s0,sp,32
   104c8:	fea42623          	sw	a0,-20(s0)
   104cc:	feb42423          	sw	a1,-24(s0)
  UNUSED_PARAM(fname);
  UNUSED_PARAM(st);
  return -1;
   104d0:	fff00793          	li	a5,-1
}
   104d4:	00078513          	mv	a0,a5
   104d8:	01c12403          	lw	s0,28(sp)
   104dc:	02010113          	addi	sp,sp,32
   104e0:	00008067          	ret

000104e4 <_link>:

int _link(const char *path1, const char *path2);
int
_link (const char *path1,
       const char *path2)
{
   104e4:	fe010113          	addi	sp,sp,-32
   104e8:	00812e23          	sw	s0,28(sp)
   104ec:	02010413          	addi	s0,sp,32
   104f0:	fea42623          	sw	a0,-20(s0)
   104f4:	feb42423          	sw	a1,-24(s0)
  UNUSED_PARAM(path1);
  UNUSED_PARAM(path2);
  return -1;
   104f8:	fff00793          	li	a5,-1
}
   104fc:	00078513          	mv	a0,a5
   10500:	01c12403          	lw	s0,28(sp)
   10504:	02010113          	addi	sp,sp,32
   10508:	00008067          	ret

0001050c <_unlink>:

int _unlink(const char *path);
int
_unlink (const char *path)
{
   1050c:	fe010113          	addi	sp,sp,-32
   10510:	00812e23          	sw	s0,28(sp)
   10514:	02010413          	addi	s0,sp,32
   10518:	fea42623          	sw	a0,-20(s0)
  UNUSED_PARAM(path);
  return -1;
   1051c:	fff00793          	li	a5,-1
}
   10520:	00078513          	mv	a0,a5
   10524:	01c12403          	lw	s0,28(sp)
   10528:	02010113          	addi	sp,sp,32
   1052c:	00008067          	ret

00010530 <_raise>:

void _raise(void);
void
_raise (void)
{
   10530:	ff010113          	addi	sp,sp,-16
   10534:	00812623          	sw	s0,12(sp)
   10538:	01010413          	addi	s0,sp,16
  return;
   1053c:	00000013          	nop
}
   10540:	00c12403          	lw	s0,12(sp)
   10544:	01010113          	addi	sp,sp,16
   10548:	00008067          	ret

0001054c <_gettimeofday>:

int _gettimeofday(struct timeval *tp, struct timezone *tzp);
int
_gettimeofday (struct timeval *tp,
	       struct timezone *tzp)
{
   1054c:	fe010113          	addi	sp,sp,-32
   10550:	00812e23          	sw	s0,28(sp)
   10554:	02010413          	addi	s0,sp,32
   10558:	fea42623          	sw	a0,-20(s0)
   1055c:	feb42423          	sw	a1,-24(s0)

  if(tp)
   10560:	fec42783          	lw	a5,-20(s0)
   10564:	02078063          	beqz	a5,10584 <_gettimeofday+0x38>
    {
      tp->tv_sec = 0;
   10568:	fec42783          	lw	a5,-20(s0)
   1056c:	00000693          	li	a3,0
   10570:	00000713          	li	a4,0
   10574:	00d7a023          	sw	a3,0(a5)
   10578:	00e7a223          	sw	a4,4(a5)
      tp->tv_usec = 0;
   1057c:	fec42783          	lw	a5,-20(s0)
   10580:	0007a423          	sw	zero,8(a5)
    }
  /* Return fixed data for the timezone.  */
  if (tzp)
   10584:	fe842783          	lw	a5,-24(s0)
   10588:	00078a63          	beqz	a5,1059c <_gettimeofday+0x50>
    {
      tzp->tz_minuteswest = 0;
   1058c:	fe842783          	lw	a5,-24(s0)
   10590:	0007a023          	sw	zero,0(a5)
      tzp->tz_dsttime = 0;
   10594:	fe842783          	lw	a5,-24(s0)
   10598:	0007a223          	sw	zero,4(a5)
    }

  return 0;
   1059c:	00000793          	li	a5,0
}
   105a0:	00078513          	mv	a0,a5
   105a4:	01c12403          	lw	s0,28(sp)
   105a8:	02010113          	addi	sp,sp,32
   105ac:	00008067          	ret

000105b0 <_times>:

/* Return a clock that ticks at 100Hz.  */
clock_t _times(struct tms *tp);
clock_t
_times (struct tms * tp)
{
   105b0:	fd010113          	addi	sp,sp,-48
   105b4:	02812623          	sw	s0,44(sp)
   105b8:	03010413          	addi	s0,sp,48
   105bc:	fca42e23          	sw	a0,-36(s0)
  clock_t timeval = 0;
   105c0:	fe042623          	sw	zero,-20(s0)

  if (tp)
   105c4:	fdc42783          	lw	a5,-36(s0)
   105c8:	02078463          	beqz	a5,105f0 <_times+0x40>
    {
      tp->tms_utime  = timeval;	/* user time */
   105cc:	fdc42783          	lw	a5,-36(s0)
   105d0:	fec42703          	lw	a4,-20(s0)
   105d4:	00e7a023          	sw	a4,0(a5)
      tp->tms_stime  = 0;	/* system time */
   105d8:	fdc42783          	lw	a5,-36(s0)
   105dc:	0007a223          	sw	zero,4(a5)
      tp->tms_cutime = 0;	/* user time, children */
   105e0:	fdc42783          	lw	a5,-36(s0)
   105e4:	0007a423          	sw	zero,8(a5)
      tp->tms_cstime = 0;	/* system time, children */
   105e8:	fdc42783          	lw	a5,-36(s0)
   105ec:	0007a623          	sw	zero,12(a5)
    }

  return timeval;
   105f0:	fec42783          	lw	a5,-20(s0)
};
   105f4:	00078513          	mv	a0,a5
   105f8:	02c12403          	lw	s0,44(sp)
   105fc:	03010113          	addi	sp,sp,48
   10600:	00008067          	ret

00010604 <isatty>:


int isatty(int fd);
int
isatty (int fd)
{
   10604:	fe010113          	addi	sp,sp,-32
   10608:	00812e23          	sw	s0,28(sp)
   1060c:	02010413          	addi	s0,sp,32
   10610:	fea42623          	sw	a0,-20(s0)
  UNUSED_PARAM(fd);
  return 1;
   10614:	00100793          	li	a5,1
}
   10618:	00078513          	mv	a0,a5
   1061c:	01c12403          	lw	s0,28(sp)
   10620:	02010113          	addi	sp,sp,32
   10624:	00008067          	ret

00010628 <_system>:

int _system(const char *s);
int
_system (const char *s)
{
   10628:	fe010113          	addi	sp,sp,-32
   1062c:	00812e23          	sw	s0,28(sp)
   10630:	02010413          	addi	s0,sp,32
   10634:	fea42623          	sw	a0,-20(s0)
  UNUSED_PARAM(s);
  return -1;
   10638:	fff00793          	li	a5,-1
}
   1063c:	00078513          	mv	a0,a5
   10640:	01c12403          	lw	s0,28(sp)
   10644:	02010113          	addi	sp,sp,32
   10648:	00008067          	ret

0001064c <_rename>:

int _rename(const char *oldpath, const char *newpath);
int
_rename (const char * oldpath, const char * newpath)
{
   1064c:	fe010113          	addi	sp,sp,-32
   10650:	00812e23          	sw	s0,28(sp)
   10654:	02010413          	addi	s0,sp,32
   10658:	fea42623          	sw	a0,-20(s0)
   1065c:	feb42423          	sw	a1,-24(s0)
  UNUSED_PARAM(oldpath);
  UNUSED_PARAM(newpath);
  return -1;
   10660:	fff00793          	li	a5,-1
}
   10664:	00078513          	mv	a0,a5
   10668:	01c12403          	lw	s0,28(sp)
   1066c:	02010113          	addi	sp,sp,32
   10670:	00008067          	ret

00010674 <_close_r>:
/* \1 \2 (struct _reent *\3\4) { return \2(\4);} */

struct _reent;

int _close_r(struct _reent *reent, int file)
{ UNUSED_PARAM(reent); return _close(file);}
   10674:	fe010113          	addi	sp,sp,-32
   10678:	00112e23          	sw	ra,28(sp)
   1067c:	00812c23          	sw	s0,24(sp)
   10680:	02010413          	addi	s0,sp,32
   10684:	fea42623          	sw	a0,-20(s0)
   10688:	feb42423          	sw	a1,-24(s0)
   1068c:	fe842503          	lw	a0,-24(s0)
   10690:	cb5ff0ef          	jal	ra,10344 <_close>
   10694:	00050793          	mv	a5,a0
   10698:	00078513          	mv	a0,a5
   1069c:	01c12083          	lw	ra,28(sp)
   106a0:	01812403          	lw	s0,24(sp)
   106a4:	02010113          	addi	sp,sp,32
   106a8:	00008067          	ret

000106ac <_fstat_r>:
  int _fcntl_r(struct _reent *, int, int, int)
  { return _fcntl( int, int, int);}
*/
int _fstat_r(struct _reent *reent, int file, struct stat *st);
int _fstat_r(struct _reent *reent, int file, struct stat *st)
{ UNUSED_PARAM(reent); return _fstat(file, st);}
   106ac:	fe010113          	addi	sp,sp,-32
   106b0:	00112e23          	sw	ra,28(sp)
   106b4:	00812c23          	sw	s0,24(sp)
   106b8:	02010413          	addi	s0,sp,32
   106bc:	fea42623          	sw	a0,-20(s0)
   106c0:	feb42423          	sw	a1,-24(s0)
   106c4:	fec42223          	sw	a2,-28(s0)
   106c8:	fe442583          	lw	a1,-28(s0)
   106cc:	fe842503          	lw	a0,-24(s0)
   106d0:	dc5ff0ef          	jal	ra,10494 <_fstat>
   106d4:	00050793          	mv	a5,a0
   106d8:	00078513          	mv	a0,a5
   106dc:	01c12083          	lw	ra,28(sp)
   106e0:	01812403          	lw	s0,24(sp)
   106e4:	02010113          	addi	sp,sp,32
   106e8:	00008067          	ret

000106ec <_getpid_r>:

int _getpid_r(struct _reent *reent);
int _getpid_r(struct _reent *reent)
{ UNUSED_PARAM(reent); return _getpid();}
   106ec:	fe010113          	addi	sp,sp,-32
   106f0:	00112e23          	sw	ra,28(sp)
   106f4:	00812c23          	sw	s0,24(sp)
   106f8:	02010413          	addi	s0,sp,32
   106fc:	fea42623          	sw	a0,-20(s0)
   10700:	cd9ff0ef          	jal	ra,103d8 <_getpid>
   10704:	00050793          	mv	a5,a0
   10708:	00078513          	mv	a0,a5
   1070c:	01c12083          	lw	ra,28(sp)
   10710:	01812403          	lw	s0,24(sp)
   10714:	02010113          	addi	sp,sp,32
   10718:	00008067          	ret

0001071c <_kill_r>:

int _kill_r(struct _reent *reent, int n, int m);
int _kill_r(struct _reent *reent, int n, int m)
{ UNUSED_PARAM(reent); return _kill(n, m);}
   1071c:	fe010113          	addi	sp,sp,-32
   10720:	00112e23          	sw	ra,28(sp)
   10724:	00812c23          	sw	s0,24(sp)
   10728:	02010413          	addi	s0,sp,32
   1072c:	fea42623          	sw	a0,-20(s0)
   10730:	feb42423          	sw	a1,-24(s0)
   10734:	fec42223          	sw	a2,-28(s0)
   10738:	fe442583          	lw	a1,-28(s0)
   1073c:	fe842503          	lw	a0,-24(s0)
   10740:	c71ff0ef          	jal	ra,103b0 <_kill>
   10744:	00050793          	mv	a5,a0
   10748:	00078513          	mv	a0,a5
   1074c:	01c12083          	lw	ra,28(sp)
   10750:	01812403          	lw	s0,24(sp)
   10754:	02010113          	addi	sp,sp,32
   10758:	00008067          	ret

0001075c <_link_r>:

int _link_r(struct _reent *reent, const char *path1, const char *path2);
int _link_r(struct _reent *reent, const char *path1, const char *path2)
{ UNUSED_PARAM(reent); return _link(path1, path2);}
   1075c:	fe010113          	addi	sp,sp,-32
   10760:	00112e23          	sw	ra,28(sp)
   10764:	00812c23          	sw	s0,24(sp)
   10768:	02010413          	addi	s0,sp,32
   1076c:	fea42623          	sw	a0,-20(s0)
   10770:	feb42423          	sw	a1,-24(s0)
   10774:	fec42223          	sw	a2,-28(s0)
   10778:	fe442583          	lw	a1,-28(s0)
   1077c:	fe842503          	lw	a0,-24(s0)
   10780:	d65ff0ef          	jal	ra,104e4 <_link>
   10784:	00050793          	mv	a5,a0
   10788:	00078513          	mv	a0,a5
   1078c:	01c12083          	lw	ra,28(sp)
   10790:	01812403          	lw	s0,24(sp)
   10794:	02010113          	addi	sp,sp,32
   10798:	00008067          	ret

0001079c <_lseek_r>:

_off_t _lseek_r(struct _reent *reent, int file, _off_t pos, int dir);
_off_t _lseek_r(struct _reent *reent, int file, _off_t pos, int dir)
{ UNUSED_PARAM(reent); return _lseek(file, pos, dir);}
   1079c:	fe010113          	addi	sp,sp,-32
   107a0:	00112e23          	sw	ra,28(sp)
   107a4:	00812c23          	sw	s0,24(sp)
   107a8:	02010413          	addi	s0,sp,32
   107ac:	fea42623          	sw	a0,-20(s0)
   107b0:	feb42423          	sw	a1,-24(s0)
   107b4:	fec42223          	sw	a2,-28(s0)
   107b8:	fed42023          	sw	a3,-32(s0)
   107bc:	fe042603          	lw	a2,-32(s0)
   107c0:	fe442583          	lw	a1,-28(s0)
   107c4:	fe842503          	lw	a0,-24(s0)
   107c8:	999ff0ef          	jal	ra,10160 <_lseek>
   107cc:	00050793          	mv	a5,a0
   107d0:	00078513          	mv	a0,a5
   107d4:	01c12083          	lw	ra,28(sp)
   107d8:	01812403          	lw	s0,24(sp)
   107dc:	02010113          	addi	sp,sp,32
   107e0:	00008067          	ret

000107e4 <_open_r>:

int _open_r(struct _reent *reent, const char *path, int flags, int opts);
int _open_r(struct _reent *reent, const char *path, int flags, int opts)
{ UNUSED_PARAM(reent); return _openat(TARGET_AT_FDCWD, path, flags, opts);}
   107e4:	fe010113          	addi	sp,sp,-32
   107e8:	00112e23          	sw	ra,28(sp)
   107ec:	00812c23          	sw	s0,24(sp)
   107f0:	02010413          	addi	s0,sp,32
   107f4:	fea42623          	sw	a0,-20(s0)
   107f8:	feb42423          	sw	a1,-24(s0)
   107fc:	fec42223          	sw	a2,-28(s0)
   10800:	fed42023          	sw	a3,-32(s0)
   10804:	fe042683          	lw	a3,-32(s0)
   10808:	fe442603          	lw	a2,-28(s0)
   1080c:	fe842583          	lw	a1,-24(s0)
   10810:	f9c00513          	li	a0,-100
   10814:	979ff0ef          	jal	ra,1018c <_openat>
   10818:	00050793          	mv	a5,a0
   1081c:	00078513          	mv	a0,a5
   10820:	01c12083          	lw	ra,28(sp)
   10824:	01812403          	lw	s0,24(sp)
   10828:	02010113          	addi	sp,sp,32
   1082c:	00008067          	ret

00010830 <_openat_r>:

int _openat_r(struct _reent *reent, int fd, const char *path, int flags, int opts);
int _openat_r(struct _reent *reent, int fd, const char *path, int flags, int opts)
{ UNUSED_PARAM(reent); return _openat(fd, path, flags, opts);}
   10830:	fd010113          	addi	sp,sp,-48
   10834:	02112623          	sw	ra,44(sp)
   10838:	02812423          	sw	s0,40(sp)
   1083c:	03010413          	addi	s0,sp,48
   10840:	fea42623          	sw	a0,-20(s0)
   10844:	feb42423          	sw	a1,-24(s0)
   10848:	fec42223          	sw	a2,-28(s0)
   1084c:	fed42023          	sw	a3,-32(s0)
   10850:	fce42e23          	sw	a4,-36(s0)
   10854:	fdc42683          	lw	a3,-36(s0)
   10858:	fe042603          	lw	a2,-32(s0)
   1085c:	fe442583          	lw	a1,-28(s0)
   10860:	fe842503          	lw	a0,-24(s0)
   10864:	929ff0ef          	jal	ra,1018c <_openat>
   10868:	00050793          	mv	a5,a0
   1086c:	00078513          	mv	a0,a5
   10870:	02c12083          	lw	ra,44(sp)
   10874:	02812403          	lw	s0,40(sp)
   10878:	03010113          	addi	sp,sp,48
   1087c:	00008067          	ret

00010880 <_read_r>:

_ssize_t _read_r(struct _reent *reent, int file, void *ptr, size_t len);
_ssize_t _read_r(struct _reent *reent, int file, void *ptr, size_t len)
{ UNUSED_PARAM(reent); return _read(file, ptr, len);}
   10880:	fe010113          	addi	sp,sp,-32
   10884:	00112e23          	sw	ra,28(sp)
   10888:	00812c23          	sw	s0,24(sp)
   1088c:	02010413          	addi	s0,sp,32
   10890:	fea42623          	sw	a0,-20(s0)
   10894:	feb42423          	sw	a1,-24(s0)
   10898:	fec42223          	sw	a2,-28(s0)
   1089c:	fed42023          	sw	a3,-32(s0)
   108a0:	fe042783          	lw	a5,-32(s0)
   108a4:	00078613          	mv	a2,a5
   108a8:	fe442583          	lw	a1,-28(s0)
   108ac:	fe842503          	lw	a0,-24(s0)
   108b0:	821ff0ef          	jal	ra,100d0 <_read>
   108b4:	00050793          	mv	a5,a0
   108b8:	00078513          	mv	a0,a5
   108bc:	01c12083          	lw	ra,28(sp)
   108c0:	01812403          	lw	s0,24(sp)
   108c4:	02010113          	addi	sp,sp,32
   108c8:	00008067          	ret

000108cc <_sbrk_r>:

void *_sbrk_r(struct _reent *reent, ptrdiff_t incr);
void *_sbrk_r(struct _reent *reent, ptrdiff_t incr)
{ UNUSED_PARAM(reent); return _sbrk(incr);}
   108cc:	fe010113          	addi	sp,sp,-32
   108d0:	00112e23          	sw	ra,28(sp)
   108d4:	00812c23          	sw	s0,24(sp)
   108d8:	02010413          	addi	s0,sp,32
   108dc:	fea42623          	sw	a0,-20(s0)
   108e0:	feb42423          	sw	a1,-24(s0)
   108e4:	fe842503          	lw	a0,-24(s0)
   108e8:	b11ff0ef          	jal	ra,103f8 <_sbrk>
   108ec:	00050793          	mv	a5,a0
   108f0:	00078513          	mv	a0,a5
   108f4:	01c12083          	lw	ra,28(sp)
   108f8:	01812403          	lw	s0,24(sp)
   108fc:	02010113          	addi	sp,sp,32
   10900:	00008067          	ret

00010904 <_stat_r>:

int _stat_r(struct _reent *reent, const char *path, struct stat *st);
int _stat_r(struct _reent *reent, const char *path, struct stat *st)
{ UNUSED_PARAM(reent); return _stat(path, st);}
   10904:	fe010113          	addi	sp,sp,-32
   10908:	00112e23          	sw	ra,28(sp)
   1090c:	00812c23          	sw	s0,24(sp)
   10910:	02010413          	addi	s0,sp,32
   10914:	fea42623          	sw	a0,-20(s0)
   10918:	feb42423          	sw	a1,-24(s0)
   1091c:	fec42223          	sw	a2,-28(s0)
   10920:	fe442583          	lw	a1,-28(s0)
   10924:	fe842503          	lw	a0,-24(s0)
   10928:	b95ff0ef          	jal	ra,104bc <_stat>
   1092c:	00050793          	mv	a5,a0
   10930:	00078513          	mv	a0,a5
   10934:	01c12083          	lw	ra,28(sp)
   10938:	01812403          	lw	s0,24(sp)
   1093c:	02010113          	addi	sp,sp,32
   10940:	00008067          	ret

00010944 <_unlink_r>:

int _unlink_r(struct _reent *reent, const char *path);
int _unlink_r(struct _reent *reent, const char *path)
{ UNUSED_PARAM(reent); return _unlink(path);}
   10944:	fe010113          	addi	sp,sp,-32
   10948:	00112e23          	sw	ra,28(sp)
   1094c:	00812c23          	sw	s0,24(sp)
   10950:	02010413          	addi	s0,sp,32
   10954:	fea42623          	sw	a0,-20(s0)
   10958:	feb42423          	sw	a1,-24(s0)
   1095c:	fe842503          	lw	a0,-24(s0)
   10960:	badff0ef          	jal	ra,1050c <_unlink>
   10964:	00050793          	mv	a5,a0
   10968:	00078513          	mv	a0,a5
   1096c:	01c12083          	lw	ra,28(sp)
   10970:	01812403          	lw	s0,24(sp)
   10974:	02010113          	addi	sp,sp,32
   10978:	00008067          	ret

0001097c <_write_r>:

_ssize_t _write_r(struct _reent *reent, int file, const void *ptr, size_t len);
_ssize_t _write_r(struct _reent *reent, int file, const void *ptr, size_t len)
{ UNUSED_PARAM(reent); return _write(file, ptr, len);}
   1097c:	fe010113          	addi	sp,sp,-32
   10980:	00112e23          	sw	ra,28(sp)
   10984:	00812c23          	sw	s0,24(sp)
   10988:	02010413          	addi	s0,sp,32
   1098c:	fea42623          	sw	a0,-20(s0)
   10990:	feb42423          	sw	a1,-24(s0)
   10994:	fec42223          	sw	a2,-28(s0)
   10998:	fed42023          	sw	a3,-32(s0)
   1099c:	fe042783          	lw	a5,-32(s0)
   109a0:	00078613          	mv	a2,a5
   109a4:	fe442583          	lw	a1,-28(s0)
   109a8:	fe842503          	lw	a0,-24(s0)
   109ac:	f6cff0ef          	jal	ra,10118 <_write>
   109b0:	00050793          	mv	a5,a0
   109b4:	00078513          	mv	a0,a5
   109b8:	01c12083          	lw	ra,28(sp)
   109bc:	01812403          	lw	s0,24(sp)
   109c0:	02010113          	addi	sp,sp,32
   109c4:	00008067          	ret

000109c8 <_isatty>:

/* FIXME: TDK added dummy functions. Need to implement. */
int _isatty(int fd);
int _isatty(int fd)
{
   109c8:	fe010113          	addi	sp,sp,-32
   109cc:	00812e23          	sw	s0,28(sp)
   109d0:	02010413          	addi	s0,sp,32
   109d4:	fea42623          	sw	a0,-20(s0)
  UNUSED_PARAM(fd);
  return -1;
   109d8:	fff00793          	li	a5,-1
}
   109dc:	00078513          	mv	a0,a5
   109e0:	01c12403          	lw	s0,28(sp)
   109e4:	02010113          	addi	sp,sp,32
   109e8:	00008067          	ret

000109ec <_swistat>:

int _swistat(int fd, struct stat *st);
int _swistat(int fd, struct stat *st)
{
   109ec:	fe010113          	addi	sp,sp,-32
   109f0:	00812e23          	sw	s0,28(sp)
   109f4:	02010413          	addi	s0,sp,32
   109f8:	fea42623          	sw	a0,-20(s0)
   109fc:	feb42423          	sw	a1,-24(s0)
  UNUSED_PARAM(fd);
  UNUSED_PARAM(st);
  return -1;
   10a00:	fff00793          	li	a5,-1
}
   10a04:	00078513          	mv	a0,a5
   10a08:	01c12403          	lw	s0,28(sp)
   10a0c:	02010113          	addi	sp,sp,32
   10a10:	00008067          	ret

00010a14 <_clock>:

/* Return a clock that ticks at 100Hz.  */
clock_t _clock(void);
clock_t _clock(void)
{
   10a14:	fe010113          	addi	sp,sp,-32
   10a18:	00812e23          	sw	s0,28(sp)
   10a1c:	02010413          	addi	s0,sp,32
  clock_t timeval=0;
   10a20:	fe042623          	sw	zero,-20(s0)
  return timeval;
   10a24:	fec42783          	lw	a5,-20(s0)
}
   10a28:	00078513          	mv	a0,a5
   10a2c:	01c12403          	lw	s0,28(sp)
   10a30:	02010113          	addi	sp,sp,32
   10a34:	00008067          	ret

00010a38 <_swiclose>:

int _swiclose(int fh);
int _swiclose(int fh)
{
   10a38:	fe010113          	addi	sp,sp,-32
   10a3c:	00812e23          	sw	s0,28(sp)
   10a40:	02010413          	addi	s0,sp,32
   10a44:	fea42623          	sw	a0,-20(s0)
  UNUSED_PARAM(fh);
  return -1;
   10a48:	fff00793          	li	a5,-1
}
   10a4c:	00078513          	mv	a0,a5
   10a50:	01c12403          	lw	s0,28(sp)
   10a54:	02010113          	addi	sp,sp,32
   10a58:	00008067          	ret

00010a5c <_swiopen>:

int _swiopen(const char *path, int flags);
int _swiopen(const char *path, int flags)
{
   10a5c:	fe010113          	addi	sp,sp,-32
   10a60:	00812e23          	sw	s0,28(sp)
   10a64:	02010413          	addi	s0,sp,32
   10a68:	fea42623          	sw	a0,-20(s0)
   10a6c:	feb42423          	sw	a1,-24(s0)
  UNUSED_PARAM(path);
  UNUSED_PARAM(flags);
  return -1;
   10a70:	fff00793          	li	a5,-1
}
   10a74:	00078513          	mv	a0,a5
   10a78:	01c12403          	lw	s0,28(sp)
   10a7c:	02010113          	addi	sp,sp,32
   10a80:	00008067          	ret

00010a84 <_swiwrite>:

int _swiwrite(int fh, char *ptr, int len);
int _swiwrite(int fh, char *ptr, int len)
{
   10a84:	fe010113          	addi	sp,sp,-32
   10a88:	00812e23          	sw	s0,28(sp)
   10a8c:	02010413          	addi	s0,sp,32
   10a90:	fea42623          	sw	a0,-20(s0)
   10a94:	feb42423          	sw	a1,-24(s0)
   10a98:	fec42223          	sw	a2,-28(s0)
  UNUSED_PARAM(fh);
  UNUSED_PARAM(ptr);
  UNUSED_PARAM(len);
  return -1;
   10a9c:	fff00793          	li	a5,-1
}
   10aa0:	00078513          	mv	a0,a5
   10aa4:	01c12403          	lw	s0,28(sp)
   10aa8:	02010113          	addi	sp,sp,32
   10aac:	00008067          	ret

00010ab0 <_swilseek>:

int _swilseek(int fd, int ptr, int dir);
int _swilseek(int fd, int ptr, int dir)
{
   10ab0:	fe010113          	addi	sp,sp,-32
   10ab4:	00812e23          	sw	s0,28(sp)
   10ab8:	02010413          	addi	s0,sp,32
   10abc:	fea42623          	sw	a0,-20(s0)
   10ac0:	feb42423          	sw	a1,-24(s0)
   10ac4:	fec42223          	sw	a2,-28(s0)
  UNUSED_PARAM(fd);
  UNUSED_PARAM(ptr);
  UNUSED_PARAM(dir);
  return -1;
   10ac8:	fff00793          	li	a5,-1
}
   10acc:	00078513          	mv	a0,a5
   10ad0:	01c12403          	lw	s0,28(sp)
   10ad4:	02010113          	addi	sp,sp,32
   10ad8:	00008067          	ret

00010adc <_swiread>:

int _swiread(int fh, char *ptr,	int len);
int _swiread(int fh, char *ptr,	int len)
{
   10adc:	fe010113          	addi	sp,sp,-32
   10ae0:	00812e23          	sw	s0,28(sp)
   10ae4:	02010413          	addi	s0,sp,32
   10ae8:	fea42623          	sw	a0,-20(s0)
   10aec:	feb42423          	sw	a1,-24(s0)
   10af0:	fec42223          	sw	a2,-28(s0)
  UNUSED_PARAM(fh);
  UNUSED_PARAM(ptr);
  UNUSED_PARAM(len);
  return -1;
   10af4:	fff00793          	li	a5,-1
}
   10af8:	00078513          	mv	a0,a5
   10afc:	01c12403          	lw	s0,28(sp)
   10b00:	02010113          	addi	sp,sp,32
   10b04:	00008067          	ret

00010b08 <initialise_monitor_handles>:

void initialise_monitor_handles(void);
void initialise_monitor_handles(void)
{
   10b08:	ff010113          	addi	sp,sp,-16
   10b0c:	00812623          	sw	s0,12(sp)
   10b10:	01010413          	addi	s0,sp,16
}
   10b14:	00000013          	nop
   10b18:	00c12403          	lw	s0,12(sp)
   10b1c:	01010113          	addi	sp,sp,16
   10b20:	00008067          	ret

00010b24 <__start>:

__start:
_start:
	.option push
	.option norelax
	la gp, __global_pointer$
   10b24:	00004197          	auipc	gp,0x4
   10b28:	50c18193          	addi	gp,gp,1292 # 15030 <__global_pointer$>
	.option pop
	la      sp, _heap_stack_end
   10b2c:	00008117          	auipc	sp,0x8
   10b30:	d2810113          	addi	sp,sp,-728 # 18854 <__malloc_current_mallinfo>
	addi    a0, zero, 0
   10b34:	00000513          	li	a0,0
	addi    a1, zero, 0
   10b38:	00000593          	li	a1,0
	jal     main
   10b3c:	d58ff0ef          	jal	ra,10094 <main>

00010b40 <quit>:
quit:
	addi    a0, zero, 0
   10b40:	00000513          	li	a0,0
	addi    a7, zero, 93  /* SYS_exit */
   10b44:	05d00893          	li	a7,93
	ecall
   10b48:	00000073          	ecall

00010b4c <loop>:

loop:	ebreak
   10b4c:	00100073          	ebreak
        beq     zero, zero, loop
   10b50:	fe000ee3          	beqz	zero,10b4c <loop>

00010b54 <_puts_r>:
   10b54:	fc010113          	addi	sp,sp,-64
   10b58:	02812c23          	sw	s0,56(sp)
   10b5c:	00050413          	mv	s0,a0
   10b60:	00058513          	mv	a0,a1
   10b64:	02912a23          	sw	s1,52(sp)
   10b68:	02112e23          	sw	ra,60(sp)
   10b6c:	00058493          	mv	s1,a1
   10b70:	0c4000ef          	jal	ra,10c34 <strlen>
   10b74:	000137b7          	lui	a5,0x13
   10b78:	7ac78793          	addi	a5,a5,1964 # 137ac <_reclaim_reent+0x150>
   10b7c:	02f12423          	sw	a5,40(sp)
   10b80:	00100793          	li	a5,1
   10b84:	02f12623          	sw	a5,44(sp)
   10b88:	03842703          	lw	a4,56(s0)
   10b8c:	02010793          	addi	a5,sp,32
   10b90:	00150693          	addi	a3,a0,1
   10b94:	00f12a23          	sw	a5,20(sp)
   10b98:	00200793          	li	a5,2
   10b9c:	02912023          	sw	s1,32(sp)
   10ba0:	02a12223          	sw	a0,36(sp)
   10ba4:	00d12e23          	sw	a3,28(sp)
   10ba8:	00f12c23          	sw	a5,24(sp)
   10bac:	00842583          	lw	a1,8(s0)
   10bb0:	04070c63          	beqz	a4,10c08 <_puts_r+0xb4>
   10bb4:	00c59783          	lh	a5,12(a1)
   10bb8:	01279713          	slli	a4,a5,0x12
   10bbc:	02074263          	bltz	a4,10be0 <_puts_r+0x8c>
   10bc0:	0645a703          	lw	a4,100(a1)
   10bc4:	000026b7          	lui	a3,0x2
   10bc8:	00d7e7b3          	or	a5,a5,a3
   10bcc:	ffffe6b7          	lui	a3,0xffffe
   10bd0:	fff68693          	addi	a3,a3,-1 # ffffdfff <__BSS_END__+0xfffe5783>
   10bd4:	00d77733          	and	a4,a4,a3
   10bd8:	00f59623          	sh	a5,12(a1)
   10bdc:	06e5a223          	sw	a4,100(a1)
   10be0:	01410613          	addi	a2,sp,20
   10be4:	00040513          	mv	a0,s0
   10be8:	47c000ef          	jal	ra,11064 <__sfvwrite_r>
   10bec:	02051863          	bnez	a0,10c1c <_puts_r+0xc8>
   10bf0:	00a00513          	li	a0,10
   10bf4:	03c12083          	lw	ra,60(sp)
   10bf8:	03812403          	lw	s0,56(sp)
   10bfc:	03412483          	lw	s1,52(sp)
   10c00:	04010113          	addi	sp,sp,64
   10c04:	00008067          	ret
   10c08:	00040513          	mv	a0,s0
   10c0c:	00b12623          	sw	a1,12(sp)
   10c10:	40c000ef          	jal	ra,1101c <__sinit>
   10c14:	00c12583          	lw	a1,12(sp)
   10c18:	f9dff06f          	j	10bb4 <_puts_r+0x60>
   10c1c:	fff00513          	li	a0,-1
   10c20:	fd5ff06f          	j	10bf4 <_puts_r+0xa0>

00010c24 <puts>:
   10c24:	000157b7          	lui	a5,0x15
   10c28:	00050593          	mv	a1,a0
   10c2c:	8347a503          	lw	a0,-1996(a5) # 14834 <_impure_ptr>
   10c30:	f25ff06f          	j	10b54 <_puts_r>

00010c34 <strlen>:
   10c34:	00357793          	andi	a5,a0,3
   10c38:	00050713          	mv	a4,a0
   10c3c:	04079a63          	bnez	a5,10c90 <strlen+0x5c>
   10c40:	7f7f86b7          	lui	a3,0x7f7f8
   10c44:	f7f68693          	addi	a3,a3,-129 # 7f7f7f7f <__BSS_END__+0x7f7df703>
   10c48:	fff00593          	li	a1,-1
   10c4c:	00072603          	lw	a2,0(a4)
   10c50:	00470713          	addi	a4,a4,4
   10c54:	00d677b3          	and	a5,a2,a3
   10c58:	00d787b3          	add	a5,a5,a3
   10c5c:	00c7e7b3          	or	a5,a5,a2
   10c60:	00d7e7b3          	or	a5,a5,a3
   10c64:	feb784e3          	beq	a5,a1,10c4c <strlen+0x18>
   10c68:	ffc74783          	lbu	a5,-4(a4)
   10c6c:	40a70533          	sub	a0,a4,a0
   10c70:	04078263          	beqz	a5,10cb4 <strlen+0x80>
   10c74:	ffd74783          	lbu	a5,-3(a4)
   10c78:	02078a63          	beqz	a5,10cac <strlen+0x78>
   10c7c:	ffe74783          	lbu	a5,-2(a4)
   10c80:	02079e63          	bnez	a5,10cbc <strlen+0x88>
   10c84:	ffe50513          	addi	a0,a0,-2
   10c88:	00008067          	ret
   10c8c:	fa068ae3          	beqz	a3,10c40 <strlen+0xc>
   10c90:	00074783          	lbu	a5,0(a4)
   10c94:	00170713          	addi	a4,a4,1
   10c98:	00377693          	andi	a3,a4,3
   10c9c:	fe0798e3          	bnez	a5,10c8c <strlen+0x58>
   10ca0:	40a70733          	sub	a4,a4,a0
   10ca4:	fff70513          	addi	a0,a4,-1
   10ca8:	00008067          	ret
   10cac:	ffd50513          	addi	a0,a0,-3
   10cb0:	00008067          	ret
   10cb4:	ffc50513          	addi	a0,a0,-4
   10cb8:	00008067          	ret
   10cbc:	fff50513          	addi	a0,a0,-1
   10cc0:	00008067          	ret

00010cc4 <__fp_lock>:
   10cc4:	00000513          	li	a0,0
   10cc8:	00008067          	ret

00010ccc <_cleanup_r>:
   10ccc:	000135b7          	lui	a1,0x13
   10cd0:	a4858593          	addi	a1,a1,-1464 # 12a48 <_fclose_r>
   10cd4:	0f10006f          	j	115c4 <_fwalk_reent>

00010cd8 <__fp_unlock>:
   10cd8:	00000513          	li	a0,0
   10cdc:	00008067          	ret

00010ce0 <__sinit.part.0>:
   10ce0:	fe010113          	addi	sp,sp,-32
   10ce4:	000117b7          	lui	a5,0x11
   10ce8:	00112e23          	sw	ra,28(sp)
   10cec:	00812c23          	sw	s0,24(sp)
   10cf0:	00912a23          	sw	s1,20(sp)
   10cf4:	01212823          	sw	s2,16(sp)
   10cf8:	01312623          	sw	s3,12(sp)
   10cfc:	01412423          	sw	s4,8(sp)
   10d00:	01512223          	sw	s5,4(sp)
   10d04:	01612023          	sw	s6,0(sp)
   10d08:	00452403          	lw	s0,4(a0)
   10d0c:	ccc78793          	addi	a5,a5,-820 # 10ccc <_cleanup_r>
   10d10:	02f52e23          	sw	a5,60(a0)
   10d14:	2ec50713          	addi	a4,a0,748
   10d18:	00300793          	li	a5,3
   10d1c:	2ee52423          	sw	a4,744(a0)
   10d20:	2ef52223          	sw	a5,740(a0)
   10d24:	2e052023          	sw	zero,736(a0)
   10d28:	00400793          	li	a5,4
   10d2c:	00050913          	mv	s2,a0
   10d30:	00f42623          	sw	a5,12(s0)
   10d34:	00800613          	li	a2,8
   10d38:	00000593          	li	a1,0
   10d3c:	06042223          	sw	zero,100(s0)
   10d40:	00042023          	sw	zero,0(s0)
   10d44:	00042223          	sw	zero,4(s0)
   10d48:	00042423          	sw	zero,8(s0)
   10d4c:	00042823          	sw	zero,16(s0)
   10d50:	00042a23          	sw	zero,20(s0)
   10d54:	00042c23          	sw	zero,24(s0)
   10d58:	05c40513          	addi	a0,s0,92
   10d5c:	3d8010ef          	jal	ra,12134 <memset>
   10d60:	00012b37          	lui	s6,0x12
   10d64:	00892483          	lw	s1,8(s2)
   10d68:	00012ab7          	lui	s5,0x12
   10d6c:	00013a37          	lui	s4,0x13
   10d70:	000139b7          	lui	s3,0x13
   10d74:	778b0b13          	addi	s6,s6,1912 # 12778 <__sread>
   10d78:	7dca8a93          	addi	s5,s5,2012 # 127dc <__swrite>
   10d7c:	864a0a13          	addi	s4,s4,-1948 # 12864 <__sseek>
   10d80:	8cc98993          	addi	s3,s3,-1844 # 128cc <__sclose>
   10d84:	000107b7          	lui	a5,0x10
   10d88:	03642023          	sw	s6,32(s0)
   10d8c:	03542223          	sw	s5,36(s0)
   10d90:	03442423          	sw	s4,40(s0)
   10d94:	03342623          	sw	s3,44(s0)
   10d98:	00842e23          	sw	s0,28(s0)
   10d9c:	00978793          	addi	a5,a5,9 # 10009 <main-0x8b>
   10da0:	00f4a623          	sw	a5,12(s1)
   10da4:	00800613          	li	a2,8
   10da8:	00000593          	li	a1,0
   10dac:	0604a223          	sw	zero,100(s1)
   10db0:	0004a023          	sw	zero,0(s1)
   10db4:	0004a223          	sw	zero,4(s1)
   10db8:	0004a423          	sw	zero,8(s1)
   10dbc:	0004a823          	sw	zero,16(s1)
   10dc0:	0004aa23          	sw	zero,20(s1)
   10dc4:	0004ac23          	sw	zero,24(s1)
   10dc8:	05c48513          	addi	a0,s1,92
   10dcc:	368010ef          	jal	ra,12134 <memset>
   10dd0:	00c92403          	lw	s0,12(s2)
   10dd4:	000207b7          	lui	a5,0x20
   10dd8:	0364a023          	sw	s6,32(s1)
   10ddc:	0354a223          	sw	s5,36(s1)
   10de0:	0344a423          	sw	s4,40(s1)
   10de4:	0334a623          	sw	s3,44(s1)
   10de8:	0094ae23          	sw	s1,28(s1)
   10dec:	01278793          	addi	a5,a5,18 # 20012 <__BSS_END__+0x7796>
   10df0:	00f42623          	sw	a5,12(s0)
   10df4:	06042223          	sw	zero,100(s0)
   10df8:	00042023          	sw	zero,0(s0)
   10dfc:	00042223          	sw	zero,4(s0)
   10e00:	00042423          	sw	zero,8(s0)
   10e04:	00042823          	sw	zero,16(s0)
   10e08:	00042a23          	sw	zero,20(s0)
   10e0c:	00042c23          	sw	zero,24(s0)
   10e10:	05c40513          	addi	a0,s0,92
   10e14:	00800613          	li	a2,8
   10e18:	00000593          	li	a1,0
   10e1c:	318010ef          	jal	ra,12134 <memset>
   10e20:	01c12083          	lw	ra,28(sp)
   10e24:	03642023          	sw	s6,32(s0)
   10e28:	03542223          	sw	s5,36(s0)
   10e2c:	03442423          	sw	s4,40(s0)
   10e30:	03342623          	sw	s3,44(s0)
   10e34:	00842e23          	sw	s0,28(s0)
   10e38:	01812403          	lw	s0,24(sp)
   10e3c:	00100793          	li	a5,1
   10e40:	02f92c23          	sw	a5,56(s2)
   10e44:	01412483          	lw	s1,20(sp)
   10e48:	01012903          	lw	s2,16(sp)
   10e4c:	00c12983          	lw	s3,12(sp)
   10e50:	00812a03          	lw	s4,8(sp)
   10e54:	00412a83          	lw	s5,4(sp)
   10e58:	00012b03          	lw	s6,0(sp)
   10e5c:	02010113          	addi	sp,sp,32
   10e60:	00008067          	ret

00010e64 <__sfmoreglue>:
   10e64:	ff010113          	addi	sp,sp,-16
   10e68:	00912223          	sw	s1,4(sp)
   10e6c:	06800793          	li	a5,104
   10e70:	fff58493          	addi	s1,a1,-1
   10e74:	02f484b3          	mul	s1,s1,a5
   10e78:	01212023          	sw	s2,0(sp)
   10e7c:	00058913          	mv	s2,a1
   10e80:	00812423          	sw	s0,8(sp)
   10e84:	00112623          	sw	ra,12(sp)
   10e88:	07448593          	addi	a1,s1,116
   10e8c:	7ec000ef          	jal	ra,11678 <_malloc_r>
   10e90:	00050413          	mv	s0,a0
   10e94:	02050063          	beqz	a0,10eb4 <__sfmoreglue+0x50>
   10e98:	00c50513          	addi	a0,a0,12
   10e9c:	00042023          	sw	zero,0(s0)
   10ea0:	01242223          	sw	s2,4(s0)
   10ea4:	00a42423          	sw	a0,8(s0)
   10ea8:	06848613          	addi	a2,s1,104
   10eac:	00000593          	li	a1,0
   10eb0:	284010ef          	jal	ra,12134 <memset>
   10eb4:	00c12083          	lw	ra,12(sp)
   10eb8:	00040513          	mv	a0,s0
   10ebc:	00812403          	lw	s0,8(sp)
   10ec0:	00412483          	lw	s1,4(sp)
   10ec4:	00012903          	lw	s2,0(sp)
   10ec8:	01010113          	addi	sp,sp,16
   10ecc:	00008067          	ret

00010ed0 <__sfp>:
   10ed0:	fe010113          	addi	sp,sp,-32
   10ed4:	000157b7          	lui	a5,0x15
   10ed8:	01212823          	sw	s2,16(sp)
   10edc:	8307a903          	lw	s2,-2000(a5) # 14830 <_global_impure_ptr>
   10ee0:	01312623          	sw	s3,12(sp)
   10ee4:	00112e23          	sw	ra,28(sp)
   10ee8:	03892783          	lw	a5,56(s2)
   10eec:	00812c23          	sw	s0,24(sp)
   10ef0:	00912a23          	sw	s1,20(sp)
   10ef4:	01412423          	sw	s4,8(sp)
   10ef8:	00050993          	mv	s3,a0
   10efc:	0a078a63          	beqz	a5,10fb0 <__sfp+0xe0>
   10f00:	2e090913          	addi	s2,s2,736
   10f04:	fff00493          	li	s1,-1
   10f08:	00400a13          	li	s4,4
   10f0c:	00492783          	lw	a5,4(s2)
   10f10:	00892403          	lw	s0,8(s2)
   10f14:	fff78793          	addi	a5,a5,-1
   10f18:	0007d863          	bgez	a5,10f28 <__sfp+0x58>
   10f1c:	0840006f          	j	10fa0 <__sfp+0xd0>
   10f20:	06840413          	addi	s0,s0,104
   10f24:	06978e63          	beq	a5,s1,10fa0 <__sfp+0xd0>
   10f28:	00c41703          	lh	a4,12(s0)
   10f2c:	fff78793          	addi	a5,a5,-1
   10f30:	fe0718e3          	bnez	a4,10f20 <__sfp+0x50>
   10f34:	ffff07b7          	lui	a5,0xffff0
   10f38:	00178793          	addi	a5,a5,1 # ffff0001 <__BSS_END__+0xfffd7785>
   10f3c:	06042223          	sw	zero,100(s0)
   10f40:	00042023          	sw	zero,0(s0)
   10f44:	00042223          	sw	zero,4(s0)
   10f48:	00042423          	sw	zero,8(s0)
   10f4c:	00f42623          	sw	a5,12(s0)
   10f50:	00042823          	sw	zero,16(s0)
   10f54:	00042a23          	sw	zero,20(s0)
   10f58:	00042c23          	sw	zero,24(s0)
   10f5c:	00800613          	li	a2,8
   10f60:	00000593          	li	a1,0
   10f64:	05c40513          	addi	a0,s0,92
   10f68:	1cc010ef          	jal	ra,12134 <memset>
   10f6c:	02042823          	sw	zero,48(s0)
   10f70:	02042a23          	sw	zero,52(s0)
   10f74:	04042223          	sw	zero,68(s0)
   10f78:	04042423          	sw	zero,72(s0)
   10f7c:	01c12083          	lw	ra,28(sp)
   10f80:	00040513          	mv	a0,s0
   10f84:	01812403          	lw	s0,24(sp)
   10f88:	01412483          	lw	s1,20(sp)
   10f8c:	01012903          	lw	s2,16(sp)
   10f90:	00c12983          	lw	s3,12(sp)
   10f94:	00812a03          	lw	s4,8(sp)
   10f98:	02010113          	addi	sp,sp,32
   10f9c:	00008067          	ret
   10fa0:	00092403          	lw	s0,0(s2)
   10fa4:	00040c63          	beqz	s0,10fbc <__sfp+0xec>
   10fa8:	00040913          	mv	s2,s0
   10fac:	f61ff06f          	j	10f0c <__sfp+0x3c>
   10fb0:	00090513          	mv	a0,s2
   10fb4:	d2dff0ef          	jal	ra,10ce0 <__sinit.part.0>
   10fb8:	f49ff06f          	j	10f00 <__sfp+0x30>
   10fbc:	1ac00593          	li	a1,428
   10fc0:	00098513          	mv	a0,s3
   10fc4:	6b4000ef          	jal	ra,11678 <_malloc_r>
   10fc8:	00050413          	mv	s0,a0
   10fcc:	02050663          	beqz	a0,10ff8 <__sfp+0x128>
   10fd0:	00c50513          	addi	a0,a0,12
   10fd4:	00042023          	sw	zero,0(s0)
   10fd8:	01442223          	sw	s4,4(s0)
   10fdc:	00a42423          	sw	a0,8(s0)
   10fe0:	1a000613          	li	a2,416
   10fe4:	00000593          	li	a1,0
   10fe8:	14c010ef          	jal	ra,12134 <memset>
   10fec:	00892023          	sw	s0,0(s2)
   10ff0:	00040913          	mv	s2,s0
   10ff4:	f19ff06f          	j	10f0c <__sfp+0x3c>
   10ff8:	00092023          	sw	zero,0(s2)
   10ffc:	00c00793          	li	a5,12
   11000:	00f9a023          	sw	a5,0(s3)
   11004:	f79ff06f          	j	10f7c <__sfp+0xac>

00011008 <_cleanup>:
   11008:	000157b7          	lui	a5,0x15
   1100c:	8307a503          	lw	a0,-2000(a5) # 14830 <_global_impure_ptr>
   11010:	000135b7          	lui	a1,0x13
   11014:	a4858593          	addi	a1,a1,-1464 # 12a48 <_fclose_r>
   11018:	5ac0006f          	j	115c4 <_fwalk_reent>

0001101c <__sinit>:
   1101c:	03852783          	lw	a5,56(a0)
   11020:	00078463          	beqz	a5,11028 <__sinit+0xc>
   11024:	00008067          	ret
   11028:	cb9ff06f          	j	10ce0 <__sinit.part.0>

0001102c <__sfp_lock_acquire>:
   1102c:	00008067          	ret

00011030 <__sfp_lock_release>:
   11030:	00008067          	ret

00011034 <__sinit_lock_acquire>:
   11034:	00008067          	ret

00011038 <__sinit_lock_release>:
   11038:	00008067          	ret

0001103c <__fp_lock_all>:
   1103c:	000157b7          	lui	a5,0x15
   11040:	8347a503          	lw	a0,-1996(a5) # 14834 <_impure_ptr>
   11044:	000115b7          	lui	a1,0x11
   11048:	cc458593          	addi	a1,a1,-828 # 10cc4 <__fp_lock>
   1104c:	4d40006f          	j	11520 <_fwalk>

00011050 <__fp_unlock_all>:
   11050:	000157b7          	lui	a5,0x15
   11054:	8347a503          	lw	a0,-1996(a5) # 14834 <_impure_ptr>
   11058:	000115b7          	lui	a1,0x11
   1105c:	cd858593          	addi	a1,a1,-808 # 10cd8 <__fp_unlock>
   11060:	4c00006f          	j	11520 <_fwalk>

00011064 <__sfvwrite_r>:
   11064:	00862783          	lw	a5,8(a2)
   11068:	32078463          	beqz	a5,11390 <__sfvwrite_r+0x32c>
   1106c:	00c5d683          	lhu	a3,12(a1)
   11070:	fb010113          	addi	sp,sp,-80
   11074:	04812423          	sw	s0,72(sp)
   11078:	03312e23          	sw	s3,60(sp)
   1107c:	03912223          	sw	s9,36(sp)
   11080:	04112623          	sw	ra,76(sp)
   11084:	04912223          	sw	s1,68(sp)
   11088:	05212023          	sw	s2,64(sp)
   1108c:	03412c23          	sw	s4,56(sp)
   11090:	03512a23          	sw	s5,52(sp)
   11094:	03612823          	sw	s6,48(sp)
   11098:	03712623          	sw	s7,44(sp)
   1109c:	03812423          	sw	s8,40(sp)
   110a0:	03a12023          	sw	s10,32(sp)
   110a4:	01b12e23          	sw	s11,28(sp)
   110a8:	0086f793          	andi	a5,a3,8
   110ac:	00060c93          	mv	s9,a2
   110b0:	00050993          	mv	s3,a0
   110b4:	00058413          	mv	s0,a1
   110b8:	08078663          	beqz	a5,11144 <__sfvwrite_r+0xe0>
   110bc:	0105a783          	lw	a5,16(a1)
   110c0:	08078263          	beqz	a5,11144 <__sfvwrite_r+0xe0>
   110c4:	0026f793          	andi	a5,a3,2
   110c8:	000ca483          	lw	s1,0(s9)
   110cc:	08078c63          	beqz	a5,11164 <__sfvwrite_r+0x100>
   110d0:	02442783          	lw	a5,36(s0)
   110d4:	01c42583          	lw	a1,28(s0)
   110d8:	80000ab7          	lui	s5,0x80000
   110dc:	00000a13          	li	s4,0
   110e0:	00000913          	li	s2,0
   110e4:	c00aca93          	xori	s5,s5,-1024
   110e8:	000a0613          	mv	a2,s4
   110ec:	00098513          	mv	a0,s3
   110f0:	04090263          	beqz	s2,11134 <__sfvwrite_r+0xd0>
   110f4:	00090693          	mv	a3,s2
   110f8:	012af463          	bgeu	s5,s2,11100 <__sfvwrite_r+0x9c>
   110fc:	000a8693          	mv	a3,s5
   11100:	000780e7          	jalr	a5
   11104:	26a05c63          	blez	a0,1137c <__sfvwrite_r+0x318>
   11108:	008ca783          	lw	a5,8(s9)
   1110c:	00aa0a33          	add	s4,s4,a0
   11110:	40a90933          	sub	s2,s2,a0
   11114:	40a787b3          	sub	a5,a5,a0
   11118:	00fca423          	sw	a5,8(s9)
   1111c:	20078863          	beqz	a5,1132c <__sfvwrite_r+0x2c8>
   11120:	02442783          	lw	a5,36(s0)
   11124:	01c42583          	lw	a1,28(s0)
   11128:	000a0613          	mv	a2,s4
   1112c:	00098513          	mv	a0,s3
   11130:	fc0912e3          	bnez	s2,110f4 <__sfvwrite_r+0x90>
   11134:	0004aa03          	lw	s4,0(s1)
   11138:	0044a903          	lw	s2,4(s1)
   1113c:	00848493          	addi	s1,s1,8
   11140:	fa9ff06f          	j	110e8 <__sfvwrite_r+0x84>
   11144:	00040593          	mv	a1,s0
   11148:	00098513          	mv	a0,s3
   1114c:	788010ef          	jal	ra,128d4 <__swsetup_r>
   11150:	3c051463          	bnez	a0,11518 <__sfvwrite_r+0x4b4>
   11154:	00c45683          	lhu	a3,12(s0)
   11158:	000ca483          	lw	s1,0(s9)
   1115c:	0026f793          	andi	a5,a3,2
   11160:	f60798e3          	bnez	a5,110d0 <__sfvwrite_r+0x6c>
   11164:	0016f793          	andi	a5,a3,1
   11168:	12079e63          	bnez	a5,112a4 <__sfvwrite_r+0x240>
   1116c:	80000a37          	lui	s4,0x80000
   11170:	00042783          	lw	a5,0(s0)
   11174:	00842703          	lw	a4,8(s0)
   11178:	fffa4613          	not	a2,s4
   1117c:	00000d13          	li	s10,0
   11180:	00000c13          	li	s8,0
   11184:	ffea4a93          	xori	s5,s4,-2
   11188:	00c12623          	sw	a2,12(sp)
   1118c:	00300b93          	li	s7,3
   11190:	00200b13          	li	s6,2
   11194:	00078513          	mv	a0,a5
   11198:	00070d93          	mv	s11,a4
   1119c:	0e0c0c63          	beqz	s8,11294 <__sfvwrite_r+0x230>
   111a0:	2006f613          	andi	a2,a3,512
   111a4:	24060a63          	beqz	a2,113f8 <__sfvwrite_r+0x394>
   111a8:	00070a13          	mv	s4,a4
   111ac:	2eec6063          	bltu	s8,a4,1148c <__sfvwrite_r+0x428>
   111b0:	4806f713          	andi	a4,a3,1152
   111b4:	08070463          	beqz	a4,1123c <__sfvwrite_r+0x1d8>
   111b8:	01442d83          	lw	s11,20(s0)
   111bc:	01042583          	lw	a1,16(s0)
   111c0:	03bb8db3          	mul	s11,s7,s11
   111c4:	40b78933          	sub	s2,a5,a1
   111c8:	00190793          	addi	a5,s2,1
   111cc:	018787b3          	add	a5,a5,s8
   111d0:	036dcdb3          	div	s11,s11,s6
   111d4:	000d8613          	mv	a2,s11
   111d8:	00fdf663          	bgeu	s11,a5,111e4 <__sfvwrite_r+0x180>
   111dc:	00078d93          	mv	s11,a5
   111e0:	00078613          	mv	a2,a5
   111e4:	4006f693          	andi	a3,a3,1024
   111e8:	2e068263          	beqz	a3,114cc <__sfvwrite_r+0x468>
   111ec:	00060593          	mv	a1,a2
   111f0:	00098513          	mv	a0,s3
   111f4:	484000ef          	jal	ra,11678 <_malloc_r>
   111f8:	00050a13          	mv	s4,a0
   111fc:	30050663          	beqz	a0,11508 <__sfvwrite_r+0x4a4>
   11200:	01042583          	lw	a1,16(s0)
   11204:	00090613          	mv	a2,s2
   11208:	4e5000ef          	jal	ra,11eec <memcpy>
   1120c:	00c45783          	lhu	a5,12(s0)
   11210:	b7f7f793          	andi	a5,a5,-1153
   11214:	0807e793          	ori	a5,a5,128
   11218:	00f41623          	sh	a5,12(s0)
   1121c:	012a0533          	add	a0,s4,s2
   11220:	412d87b3          	sub	a5,s11,s2
   11224:	01442823          	sw	s4,16(s0)
   11228:	01b42a23          	sw	s11,20(s0)
   1122c:	00a42023          	sw	a0,0(s0)
   11230:	000c0d93          	mv	s11,s8
   11234:	00f42423          	sw	a5,8(s0)
   11238:	000c0a13          	mv	s4,s8
   1123c:	000a0613          	mv	a2,s4
   11240:	000d0593          	mv	a1,s10
   11244:	5d1000ef          	jal	ra,12014 <memmove>
   11248:	00842703          	lw	a4,8(s0)
   1124c:	00042783          	lw	a5,0(s0)
   11250:	000c0913          	mv	s2,s8
   11254:	41b70733          	sub	a4,a4,s11
   11258:	014787b3          	add	a5,a5,s4
   1125c:	00e42423          	sw	a4,8(s0)
   11260:	00f42023          	sw	a5,0(s0)
   11264:	00000c13          	li	s8,0
   11268:	008ca783          	lw	a5,8(s9)
   1126c:	012d0d33          	add	s10,s10,s2
   11270:	412787b3          	sub	a5,a5,s2
   11274:	00fca423          	sw	a5,8(s9)
   11278:	0a078a63          	beqz	a5,1132c <__sfvwrite_r+0x2c8>
   1127c:	00042783          	lw	a5,0(s0)
   11280:	00842703          	lw	a4,8(s0)
   11284:	00c45683          	lhu	a3,12(s0)
   11288:	00078513          	mv	a0,a5
   1128c:	00070d93          	mv	s11,a4
   11290:	f00c18e3          	bnez	s8,111a0 <__sfvwrite_r+0x13c>
   11294:	0004ad03          	lw	s10,0(s1)
   11298:	0044ac03          	lw	s8,4(s1)
   1129c:	00848493          	addi	s1,s1,8
   112a0:	ef5ff06f          	j	11194 <__sfvwrite_r+0x130>
   112a4:	00000a93          	li	s5,0
   112a8:	00000513          	li	a0,0
   112ac:	00000b93          	li	s7,0
   112b0:	00000a13          	li	s4,0
   112b4:	0e0a0263          	beqz	s4,11398 <__sfvwrite_r+0x334>
   112b8:	0e050a63          	beqz	a0,113ac <__sfvwrite_r+0x348>
   112bc:	000a8793          	mv	a5,s5
   112c0:	000a0b13          	mv	s6,s4
   112c4:	0147f463          	bgeu	a5,s4,112cc <__sfvwrite_r+0x268>
   112c8:	00078b13          	mv	s6,a5
   112cc:	00042503          	lw	a0,0(s0)
   112d0:	01042783          	lw	a5,16(s0)
   112d4:	00842903          	lw	s2,8(s0)
   112d8:	01442683          	lw	a3,20(s0)
   112dc:	00a7f663          	bgeu	a5,a0,112e8 <__sfvwrite_r+0x284>
   112e0:	00d90933          	add	s2,s2,a3
   112e4:	0f694463          	blt	s2,s6,113cc <__sfvwrite_r+0x368>
   112e8:	1adb4863          	blt	s6,a3,11498 <__sfvwrite_r+0x434>
   112ec:	02442783          	lw	a5,36(s0)
   112f0:	01c42583          	lw	a1,28(s0)
   112f4:	000b8613          	mv	a2,s7
   112f8:	00098513          	mv	a0,s3
   112fc:	000780e7          	jalr	a5
   11300:	00050913          	mv	s2,a0
   11304:	06a05c63          	blez	a0,1137c <__sfvwrite_r+0x318>
   11308:	412a8ab3          	sub	s5,s5,s2
   1130c:	060a8063          	beqz	s5,1136c <__sfvwrite_r+0x308>
   11310:	00100513          	li	a0,1
   11314:	008ca783          	lw	a5,8(s9)
   11318:	012b8bb3          	add	s7,s7,s2
   1131c:	412a0a33          	sub	s4,s4,s2
   11320:	412787b3          	sub	a5,a5,s2
   11324:	00fca423          	sw	a5,8(s9)
   11328:	f80796e3          	bnez	a5,112b4 <__sfvwrite_r+0x250>
   1132c:	00000513          	li	a0,0
   11330:	04c12083          	lw	ra,76(sp)
   11334:	04812403          	lw	s0,72(sp)
   11338:	04412483          	lw	s1,68(sp)
   1133c:	04012903          	lw	s2,64(sp)
   11340:	03c12983          	lw	s3,60(sp)
   11344:	03812a03          	lw	s4,56(sp)
   11348:	03412a83          	lw	s5,52(sp)
   1134c:	03012b03          	lw	s6,48(sp)
   11350:	02c12b83          	lw	s7,44(sp)
   11354:	02812c03          	lw	s8,40(sp)
   11358:	02412c83          	lw	s9,36(sp)
   1135c:	02012d03          	lw	s10,32(sp)
   11360:	01c12d83          	lw	s11,28(sp)
   11364:	05010113          	addi	sp,sp,80
   11368:	00008067          	ret
   1136c:	00040593          	mv	a1,s0
   11370:	00098513          	mv	a0,s3
   11374:	25d010ef          	jal	ra,12dd0 <_fflush_r>
   11378:	f8050ee3          	beqz	a0,11314 <__sfvwrite_r+0x2b0>
   1137c:	00c41783          	lh	a5,12(s0)
   11380:	0407e793          	ori	a5,a5,64
   11384:	00f41623          	sh	a5,12(s0)
   11388:	fff00513          	li	a0,-1
   1138c:	fa5ff06f          	j	11330 <__sfvwrite_r+0x2cc>
   11390:	00000513          	li	a0,0
   11394:	00008067          	ret
   11398:	0044aa03          	lw	s4,4(s1)
   1139c:	00048793          	mv	a5,s1
   113a0:	00848493          	addi	s1,s1,8
   113a4:	fe0a0ae3          	beqz	s4,11398 <__sfvwrite_r+0x334>
   113a8:	0007ab83          	lw	s7,0(a5)
   113ac:	000a0613          	mv	a2,s4
   113b0:	00a00593          	li	a1,10
   113b4:	000b8513          	mv	a0,s7
   113b8:	26d000ef          	jal	ra,11e24 <memchr>
   113bc:	14050063          	beqz	a0,114fc <__sfvwrite_r+0x498>
   113c0:	00150513          	addi	a0,a0,1
   113c4:	41750ab3          	sub	s5,a0,s7
   113c8:	ef5ff06f          	j	112bc <__sfvwrite_r+0x258>
   113cc:	000b8593          	mv	a1,s7
   113d0:	00090613          	mv	a2,s2
   113d4:	441000ef          	jal	ra,12014 <memmove>
   113d8:	00042783          	lw	a5,0(s0)
   113dc:	00040593          	mv	a1,s0
   113e0:	00098513          	mv	a0,s3
   113e4:	012787b3          	add	a5,a5,s2
   113e8:	00f42023          	sw	a5,0(s0)
   113ec:	1e5010ef          	jal	ra,12dd0 <_fflush_r>
   113f0:	f0050ce3          	beqz	a0,11308 <__sfvwrite_r+0x2a4>
   113f4:	f89ff06f          	j	1137c <__sfvwrite_r+0x318>
   113f8:	01042683          	lw	a3,16(s0)
   113fc:	04f6e063          	bltu	a3,a5,1143c <__sfvwrite_r+0x3d8>
   11400:	01442803          	lw	a6,20(s0)
   11404:	030c6c63          	bltu	s8,a6,1143c <__sfvwrite_r+0x3d8>
   11408:	0b8afe63          	bgeu	s5,s8,114c4 <__sfvwrite_r+0x460>
   1140c:	00c12683          	lw	a3,12(sp)
   11410:	0306c6b3          	div	a3,a3,a6
   11414:	02442783          	lw	a5,36(s0)
   11418:	01c42583          	lw	a1,28(s0)
   1141c:	000d0613          	mv	a2,s10
   11420:	00098513          	mv	a0,s3
   11424:	030686b3          	mul	a3,a3,a6
   11428:	000780e7          	jalr	a5
   1142c:	00050913          	mv	s2,a0
   11430:	f4a056e3          	blez	a0,1137c <__sfvwrite_r+0x318>
   11434:	412c0c33          	sub	s8,s8,s2
   11438:	e31ff06f          	j	11268 <__sfvwrite_r+0x204>
   1143c:	00070913          	mv	s2,a4
   11440:	00ec7463          	bgeu	s8,a4,11448 <__sfvwrite_r+0x3e4>
   11444:	000c0913          	mv	s2,s8
   11448:	00078513          	mv	a0,a5
   1144c:	00090613          	mv	a2,s2
   11450:	000d0593          	mv	a1,s10
   11454:	3c1000ef          	jal	ra,12014 <memmove>
   11458:	00842703          	lw	a4,8(s0)
   1145c:	00042783          	lw	a5,0(s0)
   11460:	41270733          	sub	a4,a4,s2
   11464:	012787b3          	add	a5,a5,s2
   11468:	00e42423          	sw	a4,8(s0)
   1146c:	00f42023          	sw	a5,0(s0)
   11470:	fc0712e3          	bnez	a4,11434 <__sfvwrite_r+0x3d0>
   11474:	00040593          	mv	a1,s0
   11478:	00098513          	mv	a0,s3
   1147c:	155010ef          	jal	ra,12dd0 <_fflush_r>
   11480:	ee051ee3          	bnez	a0,1137c <__sfvwrite_r+0x318>
   11484:	412c0c33          	sub	s8,s8,s2
   11488:	de1ff06f          	j	11268 <__sfvwrite_r+0x204>
   1148c:	000c0d93          	mv	s11,s8
   11490:	000c0a13          	mv	s4,s8
   11494:	da9ff06f          	j	1123c <__sfvwrite_r+0x1d8>
   11498:	000b0613          	mv	a2,s6
   1149c:	000b8593          	mv	a1,s7
   114a0:	375000ef          	jal	ra,12014 <memmove>
   114a4:	00842703          	lw	a4,8(s0)
   114a8:	00042783          	lw	a5,0(s0)
   114ac:	000b0913          	mv	s2,s6
   114b0:	41670733          	sub	a4,a4,s6
   114b4:	016787b3          	add	a5,a5,s6
   114b8:	00e42423          	sw	a4,8(s0)
   114bc:	00f42023          	sw	a5,0(s0)
   114c0:	e49ff06f          	j	11308 <__sfvwrite_r+0x2a4>
   114c4:	000c0693          	mv	a3,s8
   114c8:	f49ff06f          	j	11410 <__sfvwrite_r+0x3ac>
   114cc:	00098513          	mv	a0,s3
   114d0:	549000ef          	jal	ra,12218 <_realloc_r>
   114d4:	00050a13          	mv	s4,a0
   114d8:	d40512e3          	bnez	a0,1121c <__sfvwrite_r+0x1b8>
   114dc:	01042583          	lw	a1,16(s0)
   114e0:	00098513          	mv	a0,s3
   114e4:	311010ef          	jal	ra,12ff4 <_free_r>
   114e8:	00c41783          	lh	a5,12(s0)
   114ec:	00c00713          	li	a4,12
   114f0:	00e9a023          	sw	a4,0(s3)
   114f4:	f7f7f793          	andi	a5,a5,-129
   114f8:	e89ff06f          	j	11380 <__sfvwrite_r+0x31c>
   114fc:	001a0793          	addi	a5,s4,1 # 80000001 <__BSS_END__+0x7ffe7785>
   11500:	00078a93          	mv	s5,a5
   11504:	dbdff06f          	j	112c0 <__sfvwrite_r+0x25c>
   11508:	00c00713          	li	a4,12
   1150c:	00c41783          	lh	a5,12(s0)
   11510:	00e9a023          	sw	a4,0(s3)
   11514:	e6dff06f          	j	11380 <__sfvwrite_r+0x31c>
   11518:	fff00513          	li	a0,-1
   1151c:	e15ff06f          	j	11330 <__sfvwrite_r+0x2cc>

00011520 <_fwalk>:
   11520:	fe010113          	addi	sp,sp,-32
   11524:	01212823          	sw	s2,16(sp)
   11528:	01312623          	sw	s3,12(sp)
   1152c:	01412423          	sw	s4,8(sp)
   11530:	01512223          	sw	s5,4(sp)
   11534:	01612023          	sw	s6,0(sp)
   11538:	00112e23          	sw	ra,28(sp)
   1153c:	00812c23          	sw	s0,24(sp)
   11540:	00912a23          	sw	s1,20(sp)
   11544:	00058b13          	mv	s6,a1
   11548:	2e050a93          	addi	s5,a0,736
   1154c:	00000a13          	li	s4,0
   11550:	00100993          	li	s3,1
   11554:	fff00913          	li	s2,-1
   11558:	004aa483          	lw	s1,4(s5) # 80000004 <__BSS_END__+0x7ffe7788>
   1155c:	008aa403          	lw	s0,8(s5)
   11560:	fff48493          	addi	s1,s1,-1
   11564:	0204c663          	bltz	s1,11590 <_fwalk+0x70>
   11568:	00c45783          	lhu	a5,12(s0)
   1156c:	fff48493          	addi	s1,s1,-1
   11570:	00f9fc63          	bgeu	s3,a5,11588 <_fwalk+0x68>
   11574:	00e41783          	lh	a5,14(s0)
   11578:	00040513          	mv	a0,s0
   1157c:	01278663          	beq	a5,s2,11588 <_fwalk+0x68>
   11580:	000b00e7          	jalr	s6
   11584:	00aa6a33          	or	s4,s4,a0
   11588:	06840413          	addi	s0,s0,104
   1158c:	fd249ee3          	bne	s1,s2,11568 <_fwalk+0x48>
   11590:	000aaa83          	lw	s5,0(s5)
   11594:	fc0a92e3          	bnez	s5,11558 <_fwalk+0x38>
   11598:	01c12083          	lw	ra,28(sp)
   1159c:	01812403          	lw	s0,24(sp)
   115a0:	01412483          	lw	s1,20(sp)
   115a4:	01012903          	lw	s2,16(sp)
   115a8:	00c12983          	lw	s3,12(sp)
   115ac:	00412a83          	lw	s5,4(sp)
   115b0:	00012b03          	lw	s6,0(sp)
   115b4:	000a0513          	mv	a0,s4
   115b8:	00812a03          	lw	s4,8(sp)
   115bc:	02010113          	addi	sp,sp,32
   115c0:	00008067          	ret

000115c4 <_fwalk_reent>:
   115c4:	fd010113          	addi	sp,sp,-48
   115c8:	03212023          	sw	s2,32(sp)
   115cc:	01312e23          	sw	s3,28(sp)
   115d0:	01412c23          	sw	s4,24(sp)
   115d4:	01512a23          	sw	s5,20(sp)
   115d8:	01612823          	sw	s6,16(sp)
   115dc:	01712623          	sw	s7,12(sp)
   115e0:	02112623          	sw	ra,44(sp)
   115e4:	02812423          	sw	s0,40(sp)
   115e8:	02912223          	sw	s1,36(sp)
   115ec:	00050a93          	mv	s5,a0
   115f0:	00058b93          	mv	s7,a1
   115f4:	2e050b13          	addi	s6,a0,736
   115f8:	00000a13          	li	s4,0
   115fc:	00100993          	li	s3,1
   11600:	fff00913          	li	s2,-1
   11604:	004b2483          	lw	s1,4(s6)
   11608:	008b2403          	lw	s0,8(s6)
   1160c:	fff48493          	addi	s1,s1,-1
   11610:	0204c863          	bltz	s1,11640 <_fwalk_reent+0x7c>
   11614:	00c45783          	lhu	a5,12(s0)
   11618:	fff48493          	addi	s1,s1,-1
   1161c:	00f9fe63          	bgeu	s3,a5,11638 <_fwalk_reent+0x74>
   11620:	00e41783          	lh	a5,14(s0)
   11624:	00040593          	mv	a1,s0
   11628:	000a8513          	mv	a0,s5
   1162c:	01278663          	beq	a5,s2,11638 <_fwalk_reent+0x74>
   11630:	000b80e7          	jalr	s7
   11634:	00aa6a33          	or	s4,s4,a0
   11638:	06840413          	addi	s0,s0,104
   1163c:	fd249ce3          	bne	s1,s2,11614 <_fwalk_reent+0x50>
   11640:	000b2b03          	lw	s6,0(s6)
   11644:	fc0b10e3          	bnez	s6,11604 <_fwalk_reent+0x40>
   11648:	02c12083          	lw	ra,44(sp)
   1164c:	02812403          	lw	s0,40(sp)
   11650:	02412483          	lw	s1,36(sp)
   11654:	02012903          	lw	s2,32(sp)
   11658:	01c12983          	lw	s3,28(sp)
   1165c:	01412a83          	lw	s5,20(sp)
   11660:	01012b03          	lw	s6,16(sp)
   11664:	00c12b83          	lw	s7,12(sp)
   11668:	000a0513          	mv	a0,s4
   1166c:	01812a03          	lw	s4,24(sp)
   11670:	03010113          	addi	sp,sp,48
   11674:	00008067          	ret

00011678 <_malloc_r>:
   11678:	fd010113          	addi	sp,sp,-48
   1167c:	01312e23          	sw	s3,28(sp)
   11680:	02112623          	sw	ra,44(sp)
   11684:	02812423          	sw	s0,40(sp)
   11688:	02912223          	sw	s1,36(sp)
   1168c:	03212023          	sw	s2,32(sp)
   11690:	01412c23          	sw	s4,24(sp)
   11694:	01512a23          	sw	s5,20(sp)
   11698:	01612823          	sw	s6,16(sp)
   1169c:	01712623          	sw	s7,12(sp)
   116a0:	01812423          	sw	s8,8(sp)
   116a4:	01912223          	sw	s9,4(sp)
   116a8:	00b58793          	addi	a5,a1,11
   116ac:	01600713          	li	a4,22
   116b0:	00050993          	mv	s3,a0
   116b4:	06f76663          	bltu	a4,a5,11720 <_malloc_r+0xa8>
   116b8:	01000793          	li	a5,16
   116bc:	1eb7e663          	bltu	a5,a1,118a8 <_malloc_r+0x230>
   116c0:	351000ef          	jal	ra,12210 <__malloc_lock>
   116c4:	01000493          	li	s1,16
   116c8:	01800793          	li	a5,24
   116cc:	00200613          	li	a2,2
   116d0:	00014937          	lui	s2,0x14
   116d4:	42890913          	addi	s2,s2,1064 # 14428 <__malloc_av_>
   116d8:	00f907b3          	add	a5,s2,a5
   116dc:	0047a403          	lw	s0,4(a5)
   116e0:	ff878713          	addi	a4,a5,-8
   116e4:	20e40a63          	beq	s0,a4,118f8 <_malloc_r+0x280>
   116e8:	00442783          	lw	a5,4(s0)
   116ec:	00c42683          	lw	a3,12(s0)
   116f0:	00842603          	lw	a2,8(s0)
   116f4:	ffc7f793          	andi	a5,a5,-4
   116f8:	00f407b3          	add	a5,s0,a5
   116fc:	0047a703          	lw	a4,4(a5)
   11700:	00d62623          	sw	a3,12(a2)
   11704:	00c6a423          	sw	a2,8(a3)
   11708:	00176713          	ori	a4,a4,1
   1170c:	00098513          	mv	a0,s3
   11710:	00e7a223          	sw	a4,4(a5)
   11714:	301000ef          	jal	ra,12214 <__malloc_unlock>
   11718:	00840513          	addi	a0,s0,8
   1171c:	1980006f          	j	118b4 <_malloc_r+0x23c>
   11720:	ff87f493          	andi	s1,a5,-8
   11724:	1807c263          	bltz	a5,118a8 <_malloc_r+0x230>
   11728:	18b4e063          	bltu	s1,a1,118a8 <_malloc_r+0x230>
   1172c:	2e5000ef          	jal	ra,12210 <__malloc_lock>
   11730:	1f700793          	li	a5,503
   11734:	4697f063          	bgeu	a5,s1,11b94 <_malloc_r+0x51c>
   11738:	0094d793          	srli	a5,s1,0x9
   1173c:	1a078663          	beqz	a5,118e8 <_malloc_r+0x270>
   11740:	00400713          	li	a4,4
   11744:	3cf76663          	bltu	a4,a5,11b10 <_malloc_r+0x498>
   11748:	0064d793          	srli	a5,s1,0x6
   1174c:	03978613          	addi	a2,a5,57
   11750:	03878513          	addi	a0,a5,56
   11754:	00361693          	slli	a3,a2,0x3
   11758:	00014937          	lui	s2,0x14
   1175c:	42890913          	addi	s2,s2,1064 # 14428 <__malloc_av_>
   11760:	00d906b3          	add	a3,s2,a3
   11764:	0046a403          	lw	s0,4(a3)
   11768:	ff868693          	addi	a3,a3,-8
   1176c:	02868663          	beq	a3,s0,11798 <_malloc_r+0x120>
   11770:	00f00593          	li	a1,15
   11774:	0100006f          	j	11784 <_malloc_r+0x10c>
   11778:	32075663          	bgez	a4,11aa4 <_malloc_r+0x42c>
   1177c:	00c42403          	lw	s0,12(s0)
   11780:	00868c63          	beq	a3,s0,11798 <_malloc_r+0x120>
   11784:	00442783          	lw	a5,4(s0)
   11788:	ffc7f793          	andi	a5,a5,-4
   1178c:	40978733          	sub	a4,a5,s1
   11790:	fee5d4e3          	bge	a1,a4,11778 <_malloc_r+0x100>
   11794:	00050613          	mv	a2,a0
   11798:	01092403          	lw	s0,16(s2)
   1179c:	00890893          	addi	a7,s2,8
   117a0:	17140863          	beq	s0,a7,11910 <_malloc_r+0x298>
   117a4:	00442583          	lw	a1,4(s0)
   117a8:	00f00713          	li	a4,15
   117ac:	ffc5f593          	andi	a1,a1,-4
   117b0:	409587b3          	sub	a5,a1,s1
   117b4:	40f74663          	blt	a4,a5,11bc0 <_malloc_r+0x548>
   117b8:	01192a23          	sw	a7,20(s2)
   117bc:	01192823          	sw	a7,16(s2)
   117c0:	3e07d063          	bgez	a5,11ba0 <_malloc_r+0x528>
   117c4:	1ff00793          	li	a5,511
   117c8:	2eb7e463          	bltu	a5,a1,11ab0 <_malloc_r+0x438>
   117cc:	ff85f793          	andi	a5,a1,-8
   117d0:	00878793          	addi	a5,a5,8
   117d4:	00492503          	lw	a0,4(s2)
   117d8:	00f907b3          	add	a5,s2,a5
   117dc:	0007a683          	lw	a3,0(a5)
   117e0:	0055d593          	srli	a1,a1,0x5
   117e4:	00100713          	li	a4,1
   117e8:	00b71733          	sll	a4,a4,a1
   117ec:	00a76733          	or	a4,a4,a0
   117f0:	ff878593          	addi	a1,a5,-8
   117f4:	00b42623          	sw	a1,12(s0)
   117f8:	00d42423          	sw	a3,8(s0)
   117fc:	00e92223          	sw	a4,4(s2)
   11800:	0087a023          	sw	s0,0(a5)
   11804:	0086a623          	sw	s0,12(a3)
   11808:	40265793          	srai	a5,a2,0x2
   1180c:	00100593          	li	a1,1
   11810:	00f595b3          	sll	a1,a1,a5
   11814:	10b76863          	bltu	a4,a1,11924 <_malloc_r+0x2ac>
   11818:	00e5f7b3          	and	a5,a1,a4
   1181c:	02079463          	bnez	a5,11844 <_malloc_r+0x1cc>
   11820:	00159593          	slli	a1,a1,0x1
   11824:	ffc67613          	andi	a2,a2,-4
   11828:	00e5f7b3          	and	a5,a1,a4
   1182c:	00460613          	addi	a2,a2,4
   11830:	00079a63          	bnez	a5,11844 <_malloc_r+0x1cc>
   11834:	00159593          	slli	a1,a1,0x1
   11838:	00e5f7b3          	and	a5,a1,a4
   1183c:	00460613          	addi	a2,a2,4
   11840:	fe078ae3          	beqz	a5,11834 <_malloc_r+0x1bc>
   11844:	00f00813          	li	a6,15
   11848:	00361313          	slli	t1,a2,0x3
   1184c:	00690333          	add	t1,s2,t1
   11850:	00030513          	mv	a0,t1
   11854:	00c52783          	lw	a5,12(a0)
   11858:	00060e13          	mv	t3,a2
   1185c:	2cf50c63          	beq	a0,a5,11b34 <_malloc_r+0x4bc>
   11860:	0047a703          	lw	a4,4(a5)
   11864:	00078413          	mv	s0,a5
   11868:	00c7a783          	lw	a5,12(a5)
   1186c:	ffc77713          	andi	a4,a4,-4
   11870:	409706b3          	sub	a3,a4,s1
   11874:	2cd84c63          	blt	a6,a3,11b4c <_malloc_r+0x4d4>
   11878:	fe06c2e3          	bltz	a3,1185c <_malloc_r+0x1e4>
   1187c:	00e40733          	add	a4,s0,a4
   11880:	00472683          	lw	a3,4(a4)
   11884:	00842603          	lw	a2,8(s0)
   11888:	00098513          	mv	a0,s3
   1188c:	0016e693          	ori	a3,a3,1
   11890:	00d72223          	sw	a3,4(a4)
   11894:	00f62623          	sw	a5,12(a2)
   11898:	00c7a423          	sw	a2,8(a5)
   1189c:	179000ef          	jal	ra,12214 <__malloc_unlock>
   118a0:	00840513          	addi	a0,s0,8
   118a4:	0100006f          	j	118b4 <_malloc_r+0x23c>
   118a8:	00c00793          	li	a5,12
   118ac:	00f9a023          	sw	a5,0(s3)
   118b0:	00000513          	li	a0,0
   118b4:	02c12083          	lw	ra,44(sp)
   118b8:	02812403          	lw	s0,40(sp)
   118bc:	02412483          	lw	s1,36(sp)
   118c0:	02012903          	lw	s2,32(sp)
   118c4:	01c12983          	lw	s3,28(sp)
   118c8:	01812a03          	lw	s4,24(sp)
   118cc:	01412a83          	lw	s5,20(sp)
   118d0:	01012b03          	lw	s6,16(sp)
   118d4:	00c12b83          	lw	s7,12(sp)
   118d8:	00812c03          	lw	s8,8(sp)
   118dc:	00412c83          	lw	s9,4(sp)
   118e0:	03010113          	addi	sp,sp,48
   118e4:	00008067          	ret
   118e8:	20000693          	li	a3,512
   118ec:	04000613          	li	a2,64
   118f0:	03f00513          	li	a0,63
   118f4:	e65ff06f          	j	11758 <_malloc_r+0xe0>
   118f8:	00c7a403          	lw	s0,12(a5)
   118fc:	00260613          	addi	a2,a2,2
   11900:	de8794e3          	bne	a5,s0,116e8 <_malloc_r+0x70>
   11904:	01092403          	lw	s0,16(s2)
   11908:	00890893          	addi	a7,s2,8
   1190c:	e9141ce3          	bne	s0,a7,117a4 <_malloc_r+0x12c>
   11910:	00492703          	lw	a4,4(s2)
   11914:	40265793          	srai	a5,a2,0x2
   11918:	00100593          	li	a1,1
   1191c:	00f595b3          	sll	a1,a1,a5
   11920:	eeb77ce3          	bgeu	a4,a1,11818 <_malloc_r+0x1a0>
   11924:	00892403          	lw	s0,8(s2)
   11928:	00442b03          	lw	s6,4(s0)
   1192c:	ffcb7b13          	andi	s6,s6,-4
   11930:	009b6863          	bltu	s6,s1,11940 <_malloc_r+0x2c8>
   11934:	409b07b3          	sub	a5,s6,s1
   11938:	00f00713          	li	a4,15
   1193c:	14f74063          	blt	a4,a5,11a7c <_malloc_r+0x404>
   11940:	00015cb7          	lui	s9,0x15
   11944:	8181aa83          	lw	s5,-2024(gp) # 14848 <__malloc_top_pad>
   11948:	838ca703          	lw	a4,-1992(s9) # 14838 <__malloc_sbrk_base>
   1194c:	fff00793          	li	a5,-1
   11950:	01640a33          	add	s4,s0,s6
   11954:	01548ab3          	add	s5,s1,s5
   11958:	34f70663          	beq	a4,a5,11ca4 <_malloc_r+0x62c>
   1195c:	000017b7          	lui	a5,0x1
   11960:	00f78793          	addi	a5,a5,15 # 100f <main-0xf085>
   11964:	00fa8ab3          	add	s5,s5,a5
   11968:	fffff7b7          	lui	a5,0xfffff
   1196c:	00fafab3          	and	s5,s5,a5
   11970:	000a8593          	mv	a1,s5
   11974:	00098513          	mv	a0,s3
   11978:	f55fe0ef          	jal	ra,108cc <_sbrk_r>
   1197c:	fff00793          	li	a5,-1
   11980:	00050b93          	mv	s7,a0
   11984:	28f50863          	beq	a0,a5,11c14 <_malloc_r+0x59c>
   11988:	29456463          	bltu	a0,s4,11c10 <_malloc_r+0x598>
   1198c:	00019c37          	lui	s8,0x19
   11990:	854c0c13          	addi	s8,s8,-1964 # 18854 <__malloc_current_mallinfo>
   11994:	000c2583          	lw	a1,0(s8)
   11998:	00ba85b3          	add	a1,s5,a1
   1199c:	00bc2023          	sw	a1,0(s8)
   119a0:	00058793          	mv	a5,a1
   119a4:	3aaa0063          	beq	s4,a0,11d44 <_malloc_r+0x6cc>
   119a8:	838ca683          	lw	a3,-1992(s9)
   119ac:	fff00713          	li	a4,-1
   119b0:	3ae68863          	beq	a3,a4,11d60 <_malloc_r+0x6e8>
   119b4:	414b8a33          	sub	s4,s7,s4
   119b8:	00fa07b3          	add	a5,s4,a5
   119bc:	00fc2023          	sw	a5,0(s8)
   119c0:	007bfc93          	andi	s9,s7,7
   119c4:	300c8263          	beqz	s9,11cc8 <_malloc_r+0x650>
   119c8:	000017b7          	lui	a5,0x1
   119cc:	419b8bb3          	sub	s7,s7,s9
   119d0:	00878593          	addi	a1,a5,8 # 1008 <main-0xf08c>
   119d4:	008b8b93          	addi	s7,s7,8
   119d8:	419585b3          	sub	a1,a1,s9
   119dc:	015b8ab3          	add	s5,s7,s5
   119e0:	fff78793          	addi	a5,a5,-1
   119e4:	415585b3          	sub	a1,a1,s5
   119e8:	00f5fa33          	and	s4,a1,a5
   119ec:	000a0593          	mv	a1,s4
   119f0:	00098513          	mv	a0,s3
   119f4:	ed9fe0ef          	jal	ra,108cc <_sbrk_r>
   119f8:	fff00793          	li	a5,-1
   119fc:	3af50c63          	beq	a0,a5,11db4 <_malloc_r+0x73c>
   11a00:	41750533          	sub	a0,a0,s7
   11a04:	01450ab3          	add	s5,a0,s4
   11a08:	000c2783          	lw	a5,0(s8)
   11a0c:	01792423          	sw	s7,8(s2)
   11a10:	001aea93          	ori	s5,s5,1
   11a14:	00fa05b3          	add	a1,s4,a5
   11a18:	00bc2023          	sw	a1,0(s8)
   11a1c:	015ba223          	sw	s5,4(s7)
   11a20:	35240463          	beq	s0,s2,11d68 <_malloc_r+0x6f0>
   11a24:	00f00693          	li	a3,15
   11a28:	3566f463          	bgeu	a3,s6,11d70 <_malloc_r+0x6f8>
   11a2c:	00442703          	lw	a4,4(s0)
   11a30:	ff4b0793          	addi	a5,s6,-12
   11a34:	ff87f793          	andi	a5,a5,-8
   11a38:	00177713          	andi	a4,a4,1
   11a3c:	00f76733          	or	a4,a4,a5
   11a40:	00e42223          	sw	a4,4(s0)
   11a44:	00500613          	li	a2,5
   11a48:	00f40733          	add	a4,s0,a5
   11a4c:	00c72223          	sw	a2,4(a4)
   11a50:	00c72423          	sw	a2,8(a4)
   11a54:	36f6ea63          	bltu	a3,a5,11dc8 <_malloc_r+0x750>
   11a58:	004baa83          	lw	s5,4(s7)
   11a5c:	000b8413          	mv	s0,s7
   11a60:	8141a703          	lw	a4,-2028(gp) # 14844 <__malloc_max_sbrked_mem>
   11a64:	00b77463          	bgeu	a4,a1,11a6c <_malloc_r+0x3f4>
   11a68:	80b1aa23          	sw	a1,-2028(gp) # 14844 <__malloc_max_sbrked_mem>
   11a6c:	8101a703          	lw	a4,-2032(gp) # 14840 <__malloc_max_total_mem>
   11a70:	1ab77663          	bgeu	a4,a1,11c1c <_malloc_r+0x5a4>
   11a74:	80b1a823          	sw	a1,-2032(gp) # 14840 <__malloc_max_total_mem>
   11a78:	1a40006f          	j	11c1c <_malloc_r+0x5a4>
   11a7c:	0014e713          	ori	a4,s1,1
   11a80:	00e42223          	sw	a4,4(s0)
   11a84:	009404b3          	add	s1,s0,s1
   11a88:	00992423          	sw	s1,8(s2)
   11a8c:	0017e793          	ori	a5,a5,1
   11a90:	00098513          	mv	a0,s3
   11a94:	00f4a223          	sw	a5,4(s1)
   11a98:	77c000ef          	jal	ra,12214 <__malloc_unlock>
   11a9c:	00840513          	addi	a0,s0,8
   11aa0:	e15ff06f          	j	118b4 <_malloc_r+0x23c>
   11aa4:	00c42683          	lw	a3,12(s0)
   11aa8:	00842603          	lw	a2,8(s0)
   11aac:	c4dff06f          	j	116f8 <_malloc_r+0x80>
   11ab0:	0095d793          	srli	a5,a1,0x9
   11ab4:	00400713          	li	a4,4
   11ab8:	14f77263          	bgeu	a4,a5,11bfc <_malloc_r+0x584>
   11abc:	01400713          	li	a4,20
   11ac0:	22f76a63          	bltu	a4,a5,11cf4 <_malloc_r+0x67c>
   11ac4:	05c78693          	addi	a3,a5,92
   11ac8:	05b78713          	addi	a4,a5,91
   11acc:	00369693          	slli	a3,a3,0x3
   11ad0:	00d906b3          	add	a3,s2,a3
   11ad4:	0006a783          	lw	a5,0(a3)
   11ad8:	ff868693          	addi	a3,a3,-8
   11adc:	1cf68863          	beq	a3,a5,11cac <_malloc_r+0x634>
   11ae0:	0047a703          	lw	a4,4(a5)
   11ae4:	ffc77713          	andi	a4,a4,-4
   11ae8:	00e5f663          	bgeu	a1,a4,11af4 <_malloc_r+0x47c>
   11aec:	0087a783          	lw	a5,8(a5)
   11af0:	fef698e3          	bne	a3,a5,11ae0 <_malloc_r+0x468>
   11af4:	00c7a683          	lw	a3,12(a5)
   11af8:	00492703          	lw	a4,4(s2)
   11afc:	00d42623          	sw	a3,12(s0)
   11b00:	00f42423          	sw	a5,8(s0)
   11b04:	0086a423          	sw	s0,8(a3)
   11b08:	0087a623          	sw	s0,12(a5)
   11b0c:	cfdff06f          	j	11808 <_malloc_r+0x190>
   11b10:	01400713          	li	a4,20
   11b14:	12f77663          	bgeu	a4,a5,11c40 <_malloc_r+0x5c8>
   11b18:	05400713          	li	a4,84
   11b1c:	1ef76a63          	bltu	a4,a5,11d10 <_malloc_r+0x698>
   11b20:	00c4d793          	srli	a5,s1,0xc
   11b24:	06f78613          	addi	a2,a5,111
   11b28:	06e78513          	addi	a0,a5,110
   11b2c:	00361693          	slli	a3,a2,0x3
   11b30:	c29ff06f          	j	11758 <_malloc_r+0xe0>
   11b34:	001e0e13          	addi	t3,t3,1
   11b38:	003e7793          	andi	a5,t3,3
   11b3c:	00850513          	addi	a0,a0,8
   11b40:	10078e63          	beqz	a5,11c5c <_malloc_r+0x5e4>
   11b44:	00c52783          	lw	a5,12(a0)
   11b48:	d15ff06f          	j	1185c <_malloc_r+0x1e4>
   11b4c:	00842603          	lw	a2,8(s0)
   11b50:	0014e593          	ori	a1,s1,1
   11b54:	00b42223          	sw	a1,4(s0)
   11b58:	00f62623          	sw	a5,12(a2)
   11b5c:	00c7a423          	sw	a2,8(a5)
   11b60:	009404b3          	add	s1,s0,s1
   11b64:	00992a23          	sw	s1,20(s2)
   11b68:	00992823          	sw	s1,16(s2)
   11b6c:	0016e793          	ori	a5,a3,1
   11b70:	0114a623          	sw	a7,12(s1)
   11b74:	0114a423          	sw	a7,8(s1)
   11b78:	00f4a223          	sw	a5,4(s1)
   11b7c:	00e40733          	add	a4,s0,a4
   11b80:	00098513          	mv	a0,s3
   11b84:	00d72023          	sw	a3,0(a4)
   11b88:	68c000ef          	jal	ra,12214 <__malloc_unlock>
   11b8c:	00840513          	addi	a0,s0,8
   11b90:	d25ff06f          	j	118b4 <_malloc_r+0x23c>
   11b94:	0034d613          	srli	a2,s1,0x3
   11b98:	00848793          	addi	a5,s1,8
   11b9c:	b35ff06f          	j	116d0 <_malloc_r+0x58>
   11ba0:	00b405b3          	add	a1,s0,a1
   11ba4:	0045a783          	lw	a5,4(a1)
   11ba8:	00098513          	mv	a0,s3
   11bac:	0017e793          	ori	a5,a5,1
   11bb0:	00f5a223          	sw	a5,4(a1)
   11bb4:	660000ef          	jal	ra,12214 <__malloc_unlock>
   11bb8:	00840513          	addi	a0,s0,8
   11bbc:	cf9ff06f          	j	118b4 <_malloc_r+0x23c>
   11bc0:	0014e713          	ori	a4,s1,1
   11bc4:	00e42223          	sw	a4,4(s0)
   11bc8:	009404b3          	add	s1,s0,s1
   11bcc:	00992a23          	sw	s1,20(s2)
   11bd0:	00992823          	sw	s1,16(s2)
   11bd4:	0017e713          	ori	a4,a5,1
   11bd8:	0114a623          	sw	a7,12(s1)
   11bdc:	0114a423          	sw	a7,8(s1)
   11be0:	00e4a223          	sw	a4,4(s1)
   11be4:	00b405b3          	add	a1,s0,a1
   11be8:	00098513          	mv	a0,s3
   11bec:	00f5a023          	sw	a5,0(a1)
   11bf0:	624000ef          	jal	ra,12214 <__malloc_unlock>
   11bf4:	00840513          	addi	a0,s0,8
   11bf8:	cbdff06f          	j	118b4 <_malloc_r+0x23c>
   11bfc:	0065d793          	srli	a5,a1,0x6
   11c00:	03978693          	addi	a3,a5,57
   11c04:	03878713          	addi	a4,a5,56
   11c08:	00369693          	slli	a3,a3,0x3
   11c0c:	ec5ff06f          	j	11ad0 <_malloc_r+0x458>
   11c10:	11240e63          	beq	s0,s2,11d2c <_malloc_r+0x6b4>
   11c14:	00892403          	lw	s0,8(s2)
   11c18:	00442a83          	lw	s5,4(s0)
   11c1c:	ffcafa93          	andi	s5,s5,-4
   11c20:	409a87b3          	sub	a5,s5,s1
   11c24:	009ae663          	bltu	s5,s1,11c30 <_malloc_r+0x5b8>
   11c28:	00f00713          	li	a4,15
   11c2c:	e4f748e3          	blt	a4,a5,11a7c <_malloc_r+0x404>
   11c30:	00098513          	mv	a0,s3
   11c34:	5e0000ef          	jal	ra,12214 <__malloc_unlock>
   11c38:	00000513          	li	a0,0
   11c3c:	c79ff06f          	j	118b4 <_malloc_r+0x23c>
   11c40:	05c78613          	addi	a2,a5,92
   11c44:	05b78513          	addi	a0,a5,91
   11c48:	00361693          	slli	a3,a2,0x3
   11c4c:	b0dff06f          	j	11758 <_malloc_r+0xe0>
   11c50:	00832783          	lw	a5,8(t1)
   11c54:	fff60613          	addi	a2,a2,-1
   11c58:	1c679263          	bne	a5,t1,11e1c <_malloc_r+0x7a4>
   11c5c:	00367793          	andi	a5,a2,3
   11c60:	ff830313          	addi	t1,t1,-8
   11c64:	fe0796e3          	bnez	a5,11c50 <_malloc_r+0x5d8>
   11c68:	00492703          	lw	a4,4(s2)
   11c6c:	fff5c793          	not	a5,a1
   11c70:	00e7f7b3          	and	a5,a5,a4
   11c74:	00f92223          	sw	a5,4(s2)
   11c78:	00159593          	slli	a1,a1,0x1
   11c7c:	cab7e4e3          	bltu	a5,a1,11924 <_malloc_r+0x2ac>
   11c80:	ca0582e3          	beqz	a1,11924 <_malloc_r+0x2ac>
   11c84:	00f5f733          	and	a4,a1,a5
   11c88:	00071a63          	bnez	a4,11c9c <_malloc_r+0x624>
   11c8c:	00159593          	slli	a1,a1,0x1
   11c90:	00f5f733          	and	a4,a1,a5
   11c94:	004e0e13          	addi	t3,t3,4
   11c98:	fe070ae3          	beqz	a4,11c8c <_malloc_r+0x614>
   11c9c:	000e0613          	mv	a2,t3
   11ca0:	ba9ff06f          	j	11848 <_malloc_r+0x1d0>
   11ca4:	010a8a93          	addi	s5,s5,16
   11ca8:	cc9ff06f          	j	11970 <_malloc_r+0x2f8>
   11cac:	00492503          	lw	a0,4(s2)
   11cb0:	40275593          	srai	a1,a4,0x2
   11cb4:	00100713          	li	a4,1
   11cb8:	00b71733          	sll	a4,a4,a1
   11cbc:	00a76733          	or	a4,a4,a0
   11cc0:	00e92223          	sw	a4,4(s2)
   11cc4:	e39ff06f          	j	11afc <_malloc_r+0x484>
   11cc8:	015b85b3          	add	a1,s7,s5
   11ccc:	40b005b3          	neg	a1,a1
   11cd0:	01459593          	slli	a1,a1,0x14
   11cd4:	0145da13          	srli	s4,a1,0x14
   11cd8:	000a0593          	mv	a1,s4
   11cdc:	00098513          	mv	a0,s3
   11ce0:	bedfe0ef          	jal	ra,108cc <_sbrk_r>
   11ce4:	fff00793          	li	a5,-1
   11ce8:	d0f51ce3          	bne	a0,a5,11a00 <_malloc_r+0x388>
   11cec:	00000a13          	li	s4,0
   11cf0:	d19ff06f          	j	11a08 <_malloc_r+0x390>
   11cf4:	05400713          	li	a4,84
   11cf8:	08f76263          	bltu	a4,a5,11d7c <_malloc_r+0x704>
   11cfc:	00c5d793          	srli	a5,a1,0xc
   11d00:	06f78693          	addi	a3,a5,111
   11d04:	06e78713          	addi	a4,a5,110
   11d08:	00369693          	slli	a3,a3,0x3
   11d0c:	dc5ff06f          	j	11ad0 <_malloc_r+0x458>
   11d10:	15400713          	li	a4,340
   11d14:	08f76263          	bltu	a4,a5,11d98 <_malloc_r+0x720>
   11d18:	00f4d793          	srli	a5,s1,0xf
   11d1c:	07878613          	addi	a2,a5,120
   11d20:	07778513          	addi	a0,a5,119
   11d24:	00361693          	slli	a3,a2,0x3
   11d28:	a31ff06f          	j	11758 <_malloc_r+0xe0>
   11d2c:	00019c37          	lui	s8,0x19
   11d30:	854c0c13          	addi	s8,s8,-1964 # 18854 <__malloc_current_mallinfo>
   11d34:	000c2783          	lw	a5,0(s8)
   11d38:	00fa87b3          	add	a5,s5,a5
   11d3c:	00fc2023          	sw	a5,0(s8)
   11d40:	c69ff06f          	j	119a8 <_malloc_r+0x330>
   11d44:	014a1713          	slli	a4,s4,0x14
   11d48:	c60710e3          	bnez	a4,119a8 <_malloc_r+0x330>
   11d4c:	00892403          	lw	s0,8(s2)
   11d50:	015b0ab3          	add	s5,s6,s5
   11d54:	001aea93          	ori	s5,s5,1
   11d58:	01542223          	sw	s5,4(s0)
   11d5c:	d05ff06f          	j	11a60 <_malloc_r+0x3e8>
   11d60:	837cac23          	sw	s7,-1992(s9)
   11d64:	c5dff06f          	j	119c0 <_malloc_r+0x348>
   11d68:	000b8413          	mv	s0,s7
   11d6c:	cf5ff06f          	j	11a60 <_malloc_r+0x3e8>
   11d70:	00100793          	li	a5,1
   11d74:	00fba223          	sw	a5,4(s7)
   11d78:	eb9ff06f          	j	11c30 <_malloc_r+0x5b8>
   11d7c:	15400713          	li	a4,340
   11d80:	06f76263          	bltu	a4,a5,11de4 <_malloc_r+0x76c>
   11d84:	00f5d793          	srli	a5,a1,0xf
   11d88:	07878693          	addi	a3,a5,120
   11d8c:	07778713          	addi	a4,a5,119
   11d90:	00369693          	slli	a3,a3,0x3
   11d94:	d3dff06f          	j	11ad0 <_malloc_r+0x458>
   11d98:	55400713          	li	a4,1364
   11d9c:	06f76263          	bltu	a4,a5,11e00 <_malloc_r+0x788>
   11da0:	0124d793          	srli	a5,s1,0x12
   11da4:	07d78613          	addi	a2,a5,125
   11da8:	07c78513          	addi	a0,a5,124
   11dac:	00361693          	slli	a3,a2,0x3
   11db0:	9a9ff06f          	j	11758 <_malloc_r+0xe0>
   11db4:	ff8c8c93          	addi	s9,s9,-8
   11db8:	019a8ab3          	add	s5,s5,s9
   11dbc:	417a8ab3          	sub	s5,s5,s7
   11dc0:	00000a13          	li	s4,0
   11dc4:	c45ff06f          	j	11a08 <_malloc_r+0x390>
   11dc8:	00840593          	addi	a1,s0,8
   11dcc:	00098513          	mv	a0,s3
   11dd0:	224010ef          	jal	ra,12ff4 <_free_r>
   11dd4:	00892403          	lw	s0,8(s2)
   11dd8:	000c2583          	lw	a1,0(s8)
   11ddc:	00442a83          	lw	s5,4(s0)
   11de0:	c81ff06f          	j	11a60 <_malloc_r+0x3e8>
   11de4:	55400713          	li	a4,1364
   11de8:	02f76463          	bltu	a4,a5,11e10 <_malloc_r+0x798>
   11dec:	0125d793          	srli	a5,a1,0x12
   11df0:	07d78693          	addi	a3,a5,125
   11df4:	07c78713          	addi	a4,a5,124
   11df8:	00369693          	slli	a3,a3,0x3
   11dfc:	cd5ff06f          	j	11ad0 <_malloc_r+0x458>
   11e00:	3f800693          	li	a3,1016
   11e04:	07f00613          	li	a2,127
   11e08:	07e00513          	li	a0,126
   11e0c:	94dff06f          	j	11758 <_malloc_r+0xe0>
   11e10:	3f800693          	li	a3,1016
   11e14:	07e00713          	li	a4,126
   11e18:	cb9ff06f          	j	11ad0 <_malloc_r+0x458>
   11e1c:	00492783          	lw	a5,4(s2)
   11e20:	e59ff06f          	j	11c78 <_malloc_r+0x600>

00011e24 <memchr>:
   11e24:	00357793          	andi	a5,a0,3
   11e28:	0ff5f693          	zext.b	a3,a1
   11e2c:	02078a63          	beqz	a5,11e60 <memchr+0x3c>
   11e30:	fff60793          	addi	a5,a2,-1
   11e34:	02060e63          	beqz	a2,11e70 <memchr+0x4c>
   11e38:	fff00613          	li	a2,-1
   11e3c:	0180006f          	j	11e54 <memchr+0x30>
   11e40:	00150513          	addi	a0,a0,1
   11e44:	00357713          	andi	a4,a0,3
   11e48:	00070e63          	beqz	a4,11e64 <memchr+0x40>
   11e4c:	fff78793          	addi	a5,a5,-1
   11e50:	02c78063          	beq	a5,a2,11e70 <memchr+0x4c>
   11e54:	00054703          	lbu	a4,0(a0)
   11e58:	fed714e3          	bne	a4,a3,11e40 <memchr+0x1c>
   11e5c:	00008067          	ret
   11e60:	00060793          	mv	a5,a2
   11e64:	00300713          	li	a4,3
   11e68:	02f76663          	bltu	a4,a5,11e94 <memchr+0x70>
   11e6c:	00079663          	bnez	a5,11e78 <memchr+0x54>
   11e70:	00000513          	li	a0,0
   11e74:	00008067          	ret
   11e78:	00f507b3          	add	a5,a0,a5
   11e7c:	00c0006f          	j	11e88 <memchr+0x64>
   11e80:	00150513          	addi	a0,a0,1
   11e84:	fea786e3          	beq	a5,a0,11e70 <memchr+0x4c>
   11e88:	00054703          	lbu	a4,0(a0)
   11e8c:	fed71ae3          	bne	a4,a3,11e80 <memchr+0x5c>
   11e90:	00008067          	ret
   11e94:	0ff5f593          	zext.b	a1,a1
   11e98:	00859713          	slli	a4,a1,0x8
   11e9c:	00b76733          	or	a4,a4,a1
   11ea0:	01071893          	slli	a7,a4,0x10
   11ea4:	feff0837          	lui	a6,0xfeff0
   11ea8:	808085b7          	lui	a1,0x80808
   11eac:	00e8e8b3          	or	a7,a7,a4
   11eb0:	eff80813          	addi	a6,a6,-257 # fefefeff <__BSS_END__+0xfefd7683>
   11eb4:	08058593          	addi	a1,a1,128 # 80808080 <__BSS_END__+0x807ef804>
   11eb8:	00300313          	li	t1,3
   11ebc:	00052703          	lw	a4,0(a0)
   11ec0:	00e8c733          	xor	a4,a7,a4
   11ec4:	01070633          	add	a2,a4,a6
   11ec8:	fff74713          	not	a4,a4
   11ecc:	00e67733          	and	a4,a2,a4
   11ed0:	00b77733          	and	a4,a4,a1
   11ed4:	fa0712e3          	bnez	a4,11e78 <memchr+0x54>
   11ed8:	ffc78793          	addi	a5,a5,-4
   11edc:	00450513          	addi	a0,a0,4
   11ee0:	fcf36ee3          	bltu	t1,a5,11ebc <memchr+0x98>
   11ee4:	f8079ae3          	bnez	a5,11e78 <memchr+0x54>
   11ee8:	f89ff06f          	j	11e70 <memchr+0x4c>

00011eec <memcpy>:
   11eec:	00b547b3          	xor	a5,a0,a1
   11ef0:	0037f793          	andi	a5,a5,3
   11ef4:	00c508b3          	add	a7,a0,a2
   11ef8:	06079663          	bnez	a5,11f64 <memcpy+0x78>
   11efc:	00300793          	li	a5,3
   11f00:	06c7f263          	bgeu	a5,a2,11f64 <memcpy+0x78>
   11f04:	00357793          	andi	a5,a0,3
   11f08:	00050713          	mv	a4,a0
   11f0c:	06079c63          	bnez	a5,11f84 <memcpy+0x98>
   11f10:	ffc8f613          	andi	a2,a7,-4
   11f14:	40e606b3          	sub	a3,a2,a4
   11f18:	02000793          	li	a5,32
   11f1c:	02000293          	li	t0,32
   11f20:	08d7cc63          	blt	a5,a3,11fb8 <memcpy+0xcc>
   11f24:	02c77c63          	bgeu	a4,a2,11f5c <memcpy+0x70>
   11f28:	00058693          	mv	a3,a1
   11f2c:	00070793          	mv	a5,a4
   11f30:	0006a803          	lw	a6,0(a3)
   11f34:	00478793          	addi	a5,a5,4
   11f38:	00468693          	addi	a3,a3,4
   11f3c:	ff07ae23          	sw	a6,-4(a5)
   11f40:	fec7e8e3          	bltu	a5,a2,11f30 <memcpy+0x44>
   11f44:	fff60793          	addi	a5,a2,-1
   11f48:	40e787b3          	sub	a5,a5,a4
   11f4c:	ffc7f793          	andi	a5,a5,-4
   11f50:	00478793          	addi	a5,a5,4
   11f54:	00f70733          	add	a4,a4,a5
   11f58:	00f585b3          	add	a1,a1,a5
   11f5c:	01176863          	bltu	a4,a7,11f6c <memcpy+0x80>
   11f60:	00008067          	ret
   11f64:	ff157ee3          	bgeu	a0,a7,11f60 <memcpy+0x74>
   11f68:	00050713          	mv	a4,a0
   11f6c:	0005c783          	lbu	a5,0(a1)
   11f70:	00170713          	addi	a4,a4,1
   11f74:	00158593          	addi	a1,a1,1
   11f78:	fef70fa3          	sb	a5,-1(a4)
   11f7c:	ff1768e3          	bltu	a4,a7,11f6c <memcpy+0x80>
   11f80:	00008067          	ret
   11f84:	0005c683          	lbu	a3,0(a1)
   11f88:	00170713          	addi	a4,a4,1
   11f8c:	00377793          	andi	a5,a4,3
   11f90:	fed70fa3          	sb	a3,-1(a4)
   11f94:	00158593          	addi	a1,a1,1
   11f98:	f6078ce3          	beqz	a5,11f10 <memcpy+0x24>
   11f9c:	0005c683          	lbu	a3,0(a1)
   11fa0:	00170713          	addi	a4,a4,1
   11fa4:	00377793          	andi	a5,a4,3
   11fa8:	fed70fa3          	sb	a3,-1(a4)
   11fac:	00158593          	addi	a1,a1,1
   11fb0:	fc079ae3          	bnez	a5,11f84 <memcpy+0x98>
   11fb4:	f5dff06f          	j	11f10 <memcpy+0x24>
   11fb8:	0045a683          	lw	a3,4(a1)
   11fbc:	01c5a783          	lw	a5,28(a1)
   11fc0:	0005af83          	lw	t6,0(a1)
   11fc4:	0085af03          	lw	t5,8(a1)
   11fc8:	00c5ae83          	lw	t4,12(a1)
   11fcc:	0105ae03          	lw	t3,16(a1)
   11fd0:	0145a303          	lw	t1,20(a1)
   11fd4:	0185a803          	lw	a6,24(a1)
   11fd8:	00d72223          	sw	a3,4(a4)
   11fdc:	0205a683          	lw	a3,32(a1)
   11fe0:	01f72023          	sw	t6,0(a4)
   11fe4:	01e72423          	sw	t5,8(a4)
   11fe8:	01d72623          	sw	t4,12(a4)
   11fec:	01c72823          	sw	t3,16(a4)
   11ff0:	00672a23          	sw	t1,20(a4)
   11ff4:	01072c23          	sw	a6,24(a4)
   11ff8:	00f72e23          	sw	a5,28(a4)
   11ffc:	02470713          	addi	a4,a4,36
   12000:	40e607b3          	sub	a5,a2,a4
   12004:	fed72e23          	sw	a3,-4(a4)
   12008:	02458593          	addi	a1,a1,36
   1200c:	faf2c6e3          	blt	t0,a5,11fb8 <memcpy+0xcc>
   12010:	f15ff06f          	j	11f24 <memcpy+0x38>

00012014 <memmove>:
   12014:	02a5f663          	bgeu	a1,a0,12040 <memmove+0x2c>
   12018:	00c587b3          	add	a5,a1,a2
   1201c:	02f57263          	bgeu	a0,a5,12040 <memmove+0x2c>
   12020:	00c50733          	add	a4,a0,a2
   12024:	0e060a63          	beqz	a2,12118 <memmove+0x104>
   12028:	fff7c683          	lbu	a3,-1(a5)
   1202c:	fff78793          	addi	a5,a5,-1
   12030:	fff70713          	addi	a4,a4,-1
   12034:	00d70023          	sb	a3,0(a4)
   12038:	fef598e3          	bne	a1,a5,12028 <memmove+0x14>
   1203c:	00008067          	ret
   12040:	00f00793          	li	a5,15
   12044:	02c7e863          	bltu	a5,a2,12074 <memmove+0x60>
   12048:	00050793          	mv	a5,a0
   1204c:	fff60693          	addi	a3,a2,-1
   12050:	0c060c63          	beqz	a2,12128 <memmove+0x114>
   12054:	00168693          	addi	a3,a3,1
   12058:	00d786b3          	add	a3,a5,a3
   1205c:	0005c703          	lbu	a4,0(a1)
   12060:	00178793          	addi	a5,a5,1
   12064:	00158593          	addi	a1,a1,1
   12068:	fee78fa3          	sb	a4,-1(a5)
   1206c:	fed798e3          	bne	a5,a3,1205c <memmove+0x48>
   12070:	00008067          	ret
   12074:	00b567b3          	or	a5,a0,a1
   12078:	0037f793          	andi	a5,a5,3
   1207c:	0a079063          	bnez	a5,1211c <memmove+0x108>
   12080:	ff060893          	addi	a7,a2,-16
   12084:	ff08f893          	andi	a7,a7,-16
   12088:	01088893          	addi	a7,a7,16
   1208c:	01150833          	add	a6,a0,a7
   12090:	00058713          	mv	a4,a1
   12094:	00050793          	mv	a5,a0
   12098:	00072683          	lw	a3,0(a4)
   1209c:	01070713          	addi	a4,a4,16
   120a0:	01078793          	addi	a5,a5,16
   120a4:	fed7a823          	sw	a3,-16(a5)
   120a8:	ff472683          	lw	a3,-12(a4)
   120ac:	fed7aa23          	sw	a3,-12(a5)
   120b0:	ff872683          	lw	a3,-8(a4)
   120b4:	fed7ac23          	sw	a3,-8(a5)
   120b8:	ffc72683          	lw	a3,-4(a4)
   120bc:	fed7ae23          	sw	a3,-4(a5)
   120c0:	fcf81ce3          	bne	a6,a5,12098 <memmove+0x84>
   120c4:	00c67713          	andi	a4,a2,12
   120c8:	011585b3          	add	a1,a1,a7
   120cc:	00f67813          	andi	a6,a2,15
   120d0:	04070e63          	beqz	a4,1212c <memmove+0x118>
   120d4:	00058713          	mv	a4,a1
   120d8:	00078893          	mv	a7,a5
   120dc:	00300e13          	li	t3,3
   120e0:	00072303          	lw	t1,0(a4)
   120e4:	00470713          	addi	a4,a4,4
   120e8:	40e806b3          	sub	a3,a6,a4
   120ec:	0068a023          	sw	t1,0(a7)
   120f0:	00d586b3          	add	a3,a1,a3
   120f4:	00488893          	addi	a7,a7,4
   120f8:	fede64e3          	bltu	t3,a3,120e0 <memmove+0xcc>
   120fc:	ffc80713          	addi	a4,a6,-4
   12100:	ffc77713          	andi	a4,a4,-4
   12104:	00470713          	addi	a4,a4,4
   12108:	00367613          	andi	a2,a2,3
   1210c:	00e787b3          	add	a5,a5,a4
   12110:	00e585b3          	add	a1,a1,a4
   12114:	f39ff06f          	j	1204c <memmove+0x38>
   12118:	00008067          	ret
   1211c:	fff60693          	addi	a3,a2,-1
   12120:	00050793          	mv	a5,a0
   12124:	f31ff06f          	j	12054 <memmove+0x40>
   12128:	00008067          	ret
   1212c:	00080613          	mv	a2,a6
   12130:	f1dff06f          	j	1204c <memmove+0x38>

00012134 <memset>:
   12134:	00f00313          	li	t1,15
   12138:	00050713          	mv	a4,a0
   1213c:	02c37e63          	bgeu	t1,a2,12178 <memset+0x44>
   12140:	00f77793          	andi	a5,a4,15
   12144:	0a079063          	bnez	a5,121e4 <memset+0xb0>
   12148:	08059263          	bnez	a1,121cc <memset+0x98>
   1214c:	ff067693          	andi	a3,a2,-16
   12150:	00f67613          	andi	a2,a2,15
   12154:	00e686b3          	add	a3,a3,a4
   12158:	00b72023          	sw	a1,0(a4)
   1215c:	00b72223          	sw	a1,4(a4)
   12160:	00b72423          	sw	a1,8(a4)
   12164:	00b72623          	sw	a1,12(a4)
   12168:	01070713          	addi	a4,a4,16
   1216c:	fed766e3          	bltu	a4,a3,12158 <memset+0x24>
   12170:	00061463          	bnez	a2,12178 <memset+0x44>
   12174:	00008067          	ret
   12178:	40c306b3          	sub	a3,t1,a2
   1217c:	00269693          	slli	a3,a3,0x2
   12180:	00000297          	auipc	t0,0x0
   12184:	005686b3          	add	a3,a3,t0
   12188:	00c68067          	jr	12(a3)
   1218c:	00b70723          	sb	a1,14(a4)
   12190:	00b706a3          	sb	a1,13(a4)
   12194:	00b70623          	sb	a1,12(a4)
   12198:	00b705a3          	sb	a1,11(a4)
   1219c:	00b70523          	sb	a1,10(a4)
   121a0:	00b704a3          	sb	a1,9(a4)
   121a4:	00b70423          	sb	a1,8(a4)
   121a8:	00b703a3          	sb	a1,7(a4)
   121ac:	00b70323          	sb	a1,6(a4)
   121b0:	00b702a3          	sb	a1,5(a4)
   121b4:	00b70223          	sb	a1,4(a4)
   121b8:	00b701a3          	sb	a1,3(a4)
   121bc:	00b70123          	sb	a1,2(a4)
   121c0:	00b700a3          	sb	a1,1(a4)
   121c4:	00b70023          	sb	a1,0(a4)
   121c8:	00008067          	ret
   121cc:	0ff5f593          	zext.b	a1,a1
   121d0:	00859693          	slli	a3,a1,0x8
   121d4:	00d5e5b3          	or	a1,a1,a3
   121d8:	01059693          	slli	a3,a1,0x10
   121dc:	00d5e5b3          	or	a1,a1,a3
   121e0:	f6dff06f          	j	1214c <memset+0x18>
   121e4:	00279693          	slli	a3,a5,0x2
   121e8:	00000297          	auipc	t0,0x0
   121ec:	005686b3          	add	a3,a3,t0
   121f0:	00008293          	mv	t0,ra
   121f4:	fa0680e7          	jalr	-96(a3)
   121f8:	00028093          	mv	ra,t0
   121fc:	ff078793          	addi	a5,a5,-16
   12200:	40f70733          	sub	a4,a4,a5
   12204:	00f60633          	add	a2,a2,a5
   12208:	f6c378e3          	bgeu	t1,a2,12178 <memset+0x44>
   1220c:	f3dff06f          	j	12148 <memset+0x14>

00012210 <__malloc_lock>:
   12210:	00008067          	ret

00012214 <__malloc_unlock>:
   12214:	00008067          	ret

00012218 <_realloc_r>:
   12218:	fd010113          	addi	sp,sp,-48
   1221c:	03212023          	sw	s2,32(sp)
   12220:	02112623          	sw	ra,44(sp)
   12224:	02812423          	sw	s0,40(sp)
   12228:	02912223          	sw	s1,36(sp)
   1222c:	01312e23          	sw	s3,28(sp)
   12230:	01412c23          	sw	s4,24(sp)
   12234:	01512a23          	sw	s5,20(sp)
   12238:	01612823          	sw	s6,16(sp)
   1223c:	01712623          	sw	s7,12(sp)
   12240:	01812423          	sw	s8,8(sp)
   12244:	00060913          	mv	s2,a2
   12248:	1c058663          	beqz	a1,12414 <_realloc_r+0x1fc>
   1224c:	00058413          	mv	s0,a1
   12250:	00050993          	mv	s3,a0
   12254:	fbdff0ef          	jal	ra,12210 <__malloc_lock>
   12258:	00b90493          	addi	s1,s2,11
   1225c:	01600713          	li	a4,22
   12260:	ffc42783          	lw	a5,-4(s0)
   12264:	0e977c63          	bgeu	a4,s1,1235c <_realloc_r+0x144>
   12268:	ff84f493          	andi	s1,s1,-8
   1226c:	00048713          	mv	a4,s1
   12270:	0e04cc63          	bltz	s1,12368 <_realloc_r+0x150>
   12274:	0f24ea63          	bltu	s1,s2,12368 <_realloc_r+0x150>
   12278:	ffc7fa13          	andi	s4,a5,-4
   1227c:	ff840a93          	addi	s5,s0,-8
   12280:	12ea5e63          	bge	s4,a4,123bc <_realloc_r+0x1a4>
   12284:	000146b7          	lui	a3,0x14
   12288:	42868c13          	addi	s8,a3,1064 # 14428 <__malloc_av_>
   1228c:	008c2583          	lw	a1,8(s8)
   12290:	014a8633          	add	a2,s5,s4
   12294:	00462683          	lw	a3,4(a2)
   12298:	1ec58063          	beq	a1,a2,12478 <_realloc_r+0x260>
   1229c:	ffe6f593          	andi	a1,a3,-2
   122a0:	00b605b3          	add	a1,a2,a1
   122a4:	0045a583          	lw	a1,4(a1)
   122a8:	0015f593          	andi	a1,a1,1
   122ac:	14059663          	bnez	a1,123f8 <_realloc_r+0x1e0>
   122b0:	ffc6f693          	andi	a3,a3,-4
   122b4:	00da05b3          	add	a1,s4,a3
   122b8:	0ee5d863          	bge	a1,a4,123a8 <_realloc_r+0x190>
   122bc:	0017f793          	andi	a5,a5,1
   122c0:	02079463          	bnez	a5,122e8 <_realloc_r+0xd0>
   122c4:	ff842b83          	lw	s7,-8(s0)
   122c8:	417a8bb3          	sub	s7,s5,s7
   122cc:	004ba783          	lw	a5,4(s7)
   122d0:	ffc7f793          	andi	a5,a5,-4
   122d4:	00d786b3          	add	a3,a5,a3
   122d8:	01468b33          	add	s6,a3,s4
   122dc:	34eb5c63          	bge	s6,a4,12634 <_realloc_r+0x41c>
   122e0:	00fa0b33          	add	s6,s4,a5
   122e4:	2ceb5063          	bge	s6,a4,125a4 <_realloc_r+0x38c>
   122e8:	00090593          	mv	a1,s2
   122ec:	00098513          	mv	a0,s3
   122f0:	b88ff0ef          	jal	ra,11678 <_malloc_r>
   122f4:	00050913          	mv	s2,a0
   122f8:	04050c63          	beqz	a0,12350 <_realloc_r+0x138>
   122fc:	ffc42783          	lw	a5,-4(s0)
   12300:	ff850713          	addi	a4,a0,-8
   12304:	ffe7f793          	andi	a5,a5,-2
   12308:	00fa87b3          	add	a5,s5,a5
   1230c:	28e78463          	beq	a5,a4,12594 <_realloc_r+0x37c>
   12310:	ffca0613          	addi	a2,s4,-4
   12314:	02400793          	li	a5,36
   12318:	30c7e863          	bltu	a5,a2,12628 <_realloc_r+0x410>
   1231c:	01300713          	li	a4,19
   12320:	20c76e63          	bltu	a4,a2,1253c <_realloc_r+0x324>
   12324:	00050793          	mv	a5,a0
   12328:	00040713          	mv	a4,s0
   1232c:	00072683          	lw	a3,0(a4)
   12330:	00d7a023          	sw	a3,0(a5)
   12334:	00472683          	lw	a3,4(a4)
   12338:	00d7a223          	sw	a3,4(a5)
   1233c:	00872703          	lw	a4,8(a4)
   12340:	00e7a423          	sw	a4,8(a5)
   12344:	00040593          	mv	a1,s0
   12348:	00098513          	mv	a0,s3
   1234c:	4a9000ef          	jal	ra,12ff4 <_free_r>
   12350:	00098513          	mv	a0,s3
   12354:	ec1ff0ef          	jal	ra,12214 <__malloc_unlock>
   12358:	01c0006f          	j	12374 <_realloc_r+0x15c>
   1235c:	01000493          	li	s1,16
   12360:	01000713          	li	a4,16
   12364:	f124fae3          	bgeu	s1,s2,12278 <_realloc_r+0x60>
   12368:	00c00793          	li	a5,12
   1236c:	00f9a023          	sw	a5,0(s3)
   12370:	00000913          	li	s2,0
   12374:	02c12083          	lw	ra,44(sp)
   12378:	02812403          	lw	s0,40(sp)
   1237c:	02412483          	lw	s1,36(sp)
   12380:	01c12983          	lw	s3,28(sp)
   12384:	01812a03          	lw	s4,24(sp)
   12388:	01412a83          	lw	s5,20(sp)
   1238c:	01012b03          	lw	s6,16(sp)
   12390:	00c12b83          	lw	s7,12(sp)
   12394:	00812c03          	lw	s8,8(sp)
   12398:	00090513          	mv	a0,s2
   1239c:	02012903          	lw	s2,32(sp)
   123a0:	03010113          	addi	sp,sp,48
   123a4:	00008067          	ret
   123a8:	00c62783          	lw	a5,12(a2)
   123ac:	00862703          	lw	a4,8(a2)
   123b0:	00058a13          	mv	s4,a1
   123b4:	00f72623          	sw	a5,12(a4)
   123b8:	00e7a423          	sw	a4,8(a5)
   123bc:	004aa783          	lw	a5,4(s5)
   123c0:	409a06b3          	sub	a3,s4,s1
   123c4:	00f00613          	li	a2,15
   123c8:	0017f793          	andi	a5,a5,1
   123cc:	014a8733          	add	a4,s5,s4
   123d0:	06d66c63          	bltu	a2,a3,12448 <_realloc_r+0x230>
   123d4:	00fa67b3          	or	a5,s4,a5
   123d8:	00faa223          	sw	a5,4(s5)
   123dc:	00472783          	lw	a5,4(a4)
   123e0:	0017e793          	ori	a5,a5,1
   123e4:	00f72223          	sw	a5,4(a4)
   123e8:	00098513          	mv	a0,s3
   123ec:	e29ff0ef          	jal	ra,12214 <__malloc_unlock>
   123f0:	00040913          	mv	s2,s0
   123f4:	f81ff06f          	j	12374 <_realloc_r+0x15c>
   123f8:	0017f793          	andi	a5,a5,1
   123fc:	ee0796e3          	bnez	a5,122e8 <_realloc_r+0xd0>
   12400:	ff842b83          	lw	s7,-8(s0)
   12404:	417a8bb3          	sub	s7,s5,s7
   12408:	004ba783          	lw	a5,4(s7)
   1240c:	ffc7f793          	andi	a5,a5,-4
   12410:	ed1ff06f          	j	122e0 <_realloc_r+0xc8>
   12414:	02812403          	lw	s0,40(sp)
   12418:	02c12083          	lw	ra,44(sp)
   1241c:	02412483          	lw	s1,36(sp)
   12420:	02012903          	lw	s2,32(sp)
   12424:	01c12983          	lw	s3,28(sp)
   12428:	01812a03          	lw	s4,24(sp)
   1242c:	01412a83          	lw	s5,20(sp)
   12430:	01012b03          	lw	s6,16(sp)
   12434:	00c12b83          	lw	s7,12(sp)
   12438:	00812c03          	lw	s8,8(sp)
   1243c:	00060593          	mv	a1,a2
   12440:	03010113          	addi	sp,sp,48
   12444:	a34ff06f          	j	11678 <_malloc_r>
   12448:	0097e7b3          	or	a5,a5,s1
   1244c:	00faa223          	sw	a5,4(s5)
   12450:	009a85b3          	add	a1,s5,s1
   12454:	0016e693          	ori	a3,a3,1
   12458:	00d5a223          	sw	a3,4(a1)
   1245c:	00472783          	lw	a5,4(a4)
   12460:	00858593          	addi	a1,a1,8
   12464:	00098513          	mv	a0,s3
   12468:	0017e793          	ori	a5,a5,1
   1246c:	00f72223          	sw	a5,4(a4)
   12470:	385000ef          	jal	ra,12ff4 <_free_r>
   12474:	f75ff06f          	j	123e8 <_realloc_r+0x1d0>
   12478:	ffc6f693          	andi	a3,a3,-4
   1247c:	00da0633          	add	a2,s4,a3
   12480:	01048593          	addi	a1,s1,16
   12484:	0cb65e63          	bge	a2,a1,12560 <_realloc_r+0x348>
   12488:	0017f793          	andi	a5,a5,1
   1248c:	e4079ee3          	bnez	a5,122e8 <_realloc_r+0xd0>
   12490:	ff842b83          	lw	s7,-8(s0)
   12494:	417a8bb3          	sub	s7,s5,s7
   12498:	004ba783          	lw	a5,4(s7)
   1249c:	ffc7f793          	andi	a5,a5,-4
   124a0:	00d786b3          	add	a3,a5,a3
   124a4:	01468b33          	add	s6,a3,s4
   124a8:	e2bb4ce3          	blt	s6,a1,122e0 <_realloc_r+0xc8>
   124ac:	00cba783          	lw	a5,12(s7)
   124b0:	008ba703          	lw	a4,8(s7)
   124b4:	ffca0613          	addi	a2,s4,-4
   124b8:	02400693          	li	a3,36
   124bc:	00f72623          	sw	a5,12(a4)
   124c0:	00e7a423          	sw	a4,8(a5)
   124c4:	008b8913          	addi	s2,s7,8
   124c8:	26c6e263          	bltu	a3,a2,1272c <_realloc_r+0x514>
   124cc:	01300793          	li	a5,19
   124d0:	24c7fa63          	bgeu	a5,a2,12724 <_realloc_r+0x50c>
   124d4:	00042703          	lw	a4,0(s0)
   124d8:	01b00793          	li	a5,27
   124dc:	00eba423          	sw	a4,8(s7)
   124e0:	00442703          	lw	a4,4(s0)
   124e4:	00eba623          	sw	a4,12(s7)
   124e8:	24c7ea63          	bltu	a5,a2,1273c <_realloc_r+0x524>
   124ec:	00840413          	addi	s0,s0,8
   124f0:	010b8793          	addi	a5,s7,16
   124f4:	00042703          	lw	a4,0(s0)
   124f8:	00e7a023          	sw	a4,0(a5)
   124fc:	00442703          	lw	a4,4(s0)
   12500:	00e7a223          	sw	a4,4(a5)
   12504:	00842703          	lw	a4,8(s0)
   12508:	00e7a423          	sw	a4,8(a5)
   1250c:	009b8733          	add	a4,s7,s1
   12510:	409b07b3          	sub	a5,s6,s1
   12514:	00ec2423          	sw	a4,8(s8)
   12518:	0017e793          	ori	a5,a5,1
   1251c:	00f72223          	sw	a5,4(a4)
   12520:	004ba783          	lw	a5,4(s7)
   12524:	00098513          	mv	a0,s3
   12528:	0017f793          	andi	a5,a5,1
   1252c:	0097e7b3          	or	a5,a5,s1
   12530:	00fba223          	sw	a5,4(s7)
   12534:	ce1ff0ef          	jal	ra,12214 <__malloc_unlock>
   12538:	e3dff06f          	j	12374 <_realloc_r+0x15c>
   1253c:	00042683          	lw	a3,0(s0)
   12540:	01b00713          	li	a4,27
   12544:	00d52023          	sw	a3,0(a0)
   12548:	00442683          	lw	a3,4(s0)
   1254c:	00d52223          	sw	a3,4(a0)
   12550:	18c76663          	bltu	a4,a2,126dc <_realloc_r+0x4c4>
   12554:	00840713          	addi	a4,s0,8
   12558:	00850793          	addi	a5,a0,8
   1255c:	dd1ff06f          	j	1232c <_realloc_r+0x114>
   12560:	009a8ab3          	add	s5,s5,s1
   12564:	409607b3          	sub	a5,a2,s1
   12568:	015c2423          	sw	s5,8(s8)
   1256c:	0017e793          	ori	a5,a5,1
   12570:	00faa223          	sw	a5,4(s5)
   12574:	ffc42783          	lw	a5,-4(s0)
   12578:	00098513          	mv	a0,s3
   1257c:	00040913          	mv	s2,s0
   12580:	0017f793          	andi	a5,a5,1
   12584:	0097e7b3          	or	a5,a5,s1
   12588:	fef42e23          	sw	a5,-4(s0)
   1258c:	c89ff0ef          	jal	ra,12214 <__malloc_unlock>
   12590:	de5ff06f          	j	12374 <_realloc_r+0x15c>
   12594:	ffc52783          	lw	a5,-4(a0)
   12598:	ffc7f793          	andi	a5,a5,-4
   1259c:	00fa0a33          	add	s4,s4,a5
   125a0:	e1dff06f          	j	123bc <_realloc_r+0x1a4>
   125a4:	00cba783          	lw	a5,12(s7)
   125a8:	008ba703          	lw	a4,8(s7)
   125ac:	ffca0613          	addi	a2,s4,-4
   125b0:	02400693          	li	a3,36
   125b4:	00f72623          	sw	a5,12(a4)
   125b8:	00e7a423          	sw	a4,8(a5)
   125bc:	008b8913          	addi	s2,s7,8
   125c0:	10c6e063          	bltu	a3,a2,126c0 <_realloc_r+0x4a8>
   125c4:	01300793          	li	a5,19
   125c8:	0ec7f863          	bgeu	a5,a2,126b8 <_realloc_r+0x4a0>
   125cc:	00042703          	lw	a4,0(s0)
   125d0:	01b00793          	li	a5,27
   125d4:	00eba423          	sw	a4,8(s7)
   125d8:	00442703          	lw	a4,4(s0)
   125dc:	00eba623          	sw	a4,12(s7)
   125e0:	10c7fe63          	bgeu	a5,a2,126fc <_realloc_r+0x4e4>
   125e4:	00842783          	lw	a5,8(s0)
   125e8:	00fba823          	sw	a5,16(s7)
   125ec:	00c42783          	lw	a5,12(s0)
   125f0:	00fbaa23          	sw	a5,20(s7)
   125f4:	0ad60463          	beq	a2,a3,1269c <_realloc_r+0x484>
   125f8:	01040413          	addi	s0,s0,16
   125fc:	018b8793          	addi	a5,s7,24
   12600:	00042703          	lw	a4,0(s0)
   12604:	000b0a13          	mv	s4,s6
   12608:	000b8a93          	mv	s5,s7
   1260c:	00e7a023          	sw	a4,0(a5)
   12610:	00442703          	lw	a4,4(s0)
   12614:	00e7a223          	sw	a4,4(a5)
   12618:	00842703          	lw	a4,8(s0)
   1261c:	00090413          	mv	s0,s2
   12620:	00e7a423          	sw	a4,8(a5)
   12624:	d99ff06f          	j	123bc <_realloc_r+0x1a4>
   12628:	00040593          	mv	a1,s0
   1262c:	9e9ff0ef          	jal	ra,12014 <memmove>
   12630:	d15ff06f          	j	12344 <_realloc_r+0x12c>
   12634:	00c62783          	lw	a5,12(a2)
   12638:	00862703          	lw	a4,8(a2)
   1263c:	02400693          	li	a3,36
   12640:	ffca0613          	addi	a2,s4,-4
   12644:	00f72623          	sw	a5,12(a4)
   12648:	00e7a423          	sw	a4,8(a5)
   1264c:	008ba703          	lw	a4,8(s7)
   12650:	00cba783          	lw	a5,12(s7)
   12654:	008b8913          	addi	s2,s7,8
   12658:	00f72623          	sw	a5,12(a4)
   1265c:	00e7a423          	sw	a4,8(a5)
   12660:	06c6e063          	bltu	a3,a2,126c0 <_realloc_r+0x4a8>
   12664:	01300793          	li	a5,19
   12668:	04c7f863          	bgeu	a5,a2,126b8 <_realloc_r+0x4a0>
   1266c:	00042703          	lw	a4,0(s0)
   12670:	01b00793          	li	a5,27
   12674:	00eba423          	sw	a4,8(s7)
   12678:	00442703          	lw	a4,4(s0)
   1267c:	00eba623          	sw	a4,12(s7)
   12680:	06c7fe63          	bgeu	a5,a2,126fc <_realloc_r+0x4e4>
   12684:	00842703          	lw	a4,8(s0)
   12688:	02400793          	li	a5,36
   1268c:	00eba823          	sw	a4,16(s7)
   12690:	00c42703          	lw	a4,12(s0)
   12694:	00ebaa23          	sw	a4,20(s7)
   12698:	f6f610e3          	bne	a2,a5,125f8 <_realloc_r+0x3e0>
   1269c:	01042703          	lw	a4,16(s0)
   126a0:	01840413          	addi	s0,s0,24
   126a4:	020b8793          	addi	a5,s7,32
   126a8:	00ebac23          	sw	a4,24(s7)
   126ac:	ffc42703          	lw	a4,-4(s0)
   126b0:	00ebae23          	sw	a4,28(s7)
   126b4:	f4dff06f          	j	12600 <_realloc_r+0x3e8>
   126b8:	00090793          	mv	a5,s2
   126bc:	f45ff06f          	j	12600 <_realloc_r+0x3e8>
   126c0:	00040593          	mv	a1,s0
   126c4:	00090513          	mv	a0,s2
   126c8:	94dff0ef          	jal	ra,12014 <memmove>
   126cc:	00090413          	mv	s0,s2
   126d0:	000b0a13          	mv	s4,s6
   126d4:	000b8a93          	mv	s5,s7
   126d8:	ce5ff06f          	j	123bc <_realloc_r+0x1a4>
   126dc:	00842703          	lw	a4,8(s0)
   126e0:	00e52423          	sw	a4,8(a0)
   126e4:	00c42703          	lw	a4,12(s0)
   126e8:	00e52623          	sw	a4,12(a0)
   126ec:	00f60e63          	beq	a2,a5,12708 <_realloc_r+0x4f0>
   126f0:	01040713          	addi	a4,s0,16
   126f4:	01050793          	addi	a5,a0,16
   126f8:	c35ff06f          	j	1232c <_realloc_r+0x114>
   126fc:	00840413          	addi	s0,s0,8
   12700:	010b8793          	addi	a5,s7,16
   12704:	efdff06f          	j	12600 <_realloc_r+0x3e8>
   12708:	01042683          	lw	a3,16(s0)
   1270c:	01840713          	addi	a4,s0,24
   12710:	01850793          	addi	a5,a0,24
   12714:	00d52823          	sw	a3,16(a0)
   12718:	01442683          	lw	a3,20(s0)
   1271c:	00d52a23          	sw	a3,20(a0)
   12720:	c0dff06f          	j	1232c <_realloc_r+0x114>
   12724:	00090793          	mv	a5,s2
   12728:	dcdff06f          	j	124f4 <_realloc_r+0x2dc>
   1272c:	00040593          	mv	a1,s0
   12730:	00090513          	mv	a0,s2
   12734:	8e1ff0ef          	jal	ra,12014 <memmove>
   12738:	dd5ff06f          	j	1250c <_realloc_r+0x2f4>
   1273c:	00842783          	lw	a5,8(s0)
   12740:	00fba823          	sw	a5,16(s7)
   12744:	00c42783          	lw	a5,12(s0)
   12748:	00fbaa23          	sw	a5,20(s7)
   1274c:	00d60863          	beq	a2,a3,1275c <_realloc_r+0x544>
   12750:	01040413          	addi	s0,s0,16
   12754:	018b8793          	addi	a5,s7,24
   12758:	d9dff06f          	j	124f4 <_realloc_r+0x2dc>
   1275c:	01042703          	lw	a4,16(s0)
   12760:	01840413          	addi	s0,s0,24
   12764:	020b8793          	addi	a5,s7,32
   12768:	00ebac23          	sw	a4,24(s7)
   1276c:	ffc42703          	lw	a4,-4(s0)
   12770:	00ebae23          	sw	a4,28(s7)
   12774:	d81ff06f          	j	124f4 <_realloc_r+0x2dc>

00012778 <__sread>:
   12778:	ff010113          	addi	sp,sp,-16
   1277c:	00812423          	sw	s0,8(sp)
   12780:	00058413          	mv	s0,a1
   12784:	00e59583          	lh	a1,14(a1)
   12788:	00112623          	sw	ra,12(sp)
   1278c:	8f4fe0ef          	jal	ra,10880 <_read_r>
   12790:	02054063          	bltz	a0,127b0 <__sread+0x38>
   12794:	05042783          	lw	a5,80(s0)
   12798:	00c12083          	lw	ra,12(sp)
   1279c:	00a787b3          	add	a5,a5,a0
   127a0:	04f42823          	sw	a5,80(s0)
   127a4:	00812403          	lw	s0,8(sp)
   127a8:	01010113          	addi	sp,sp,16
   127ac:	00008067          	ret
   127b0:	00c45783          	lhu	a5,12(s0)
   127b4:	fffff737          	lui	a4,0xfffff
   127b8:	fff70713          	addi	a4,a4,-1 # ffffefff <__BSS_END__+0xfffe6783>
   127bc:	00e7f7b3          	and	a5,a5,a4
   127c0:	00c12083          	lw	ra,12(sp)
   127c4:	00f41623          	sh	a5,12(s0)
   127c8:	00812403          	lw	s0,8(sp)
   127cc:	01010113          	addi	sp,sp,16
   127d0:	00008067          	ret

000127d4 <__seofread>:
   127d4:	00000513          	li	a0,0
   127d8:	00008067          	ret

000127dc <__swrite>:
   127dc:	00c59783          	lh	a5,12(a1)
   127e0:	fe010113          	addi	sp,sp,-32
   127e4:	00812c23          	sw	s0,24(sp)
   127e8:	00912a23          	sw	s1,20(sp)
   127ec:	01212823          	sw	s2,16(sp)
   127f0:	01312623          	sw	s3,12(sp)
   127f4:	00112e23          	sw	ra,28(sp)
   127f8:	1007f713          	andi	a4,a5,256
   127fc:	00058413          	mv	s0,a1
   12800:	00050493          	mv	s1,a0
   12804:	00060913          	mv	s2,a2
   12808:	00068993          	mv	s3,a3
   1280c:	04071063          	bnez	a4,1284c <__swrite+0x70>
   12810:	fffff737          	lui	a4,0xfffff
   12814:	fff70713          	addi	a4,a4,-1 # ffffefff <__BSS_END__+0xfffe6783>
   12818:	00e7f7b3          	and	a5,a5,a4
   1281c:	00e41583          	lh	a1,14(s0)
   12820:	00f41623          	sh	a5,12(s0)
   12824:	01812403          	lw	s0,24(sp)
   12828:	01c12083          	lw	ra,28(sp)
   1282c:	00098693          	mv	a3,s3
   12830:	00090613          	mv	a2,s2
   12834:	00c12983          	lw	s3,12(sp)
   12838:	01012903          	lw	s2,16(sp)
   1283c:	00048513          	mv	a0,s1
   12840:	01412483          	lw	s1,20(sp)
   12844:	02010113          	addi	sp,sp,32
   12848:	934fe06f          	j	1097c <_write_r>
   1284c:	00e59583          	lh	a1,14(a1)
   12850:	00200693          	li	a3,2
   12854:	00000613          	li	a2,0
   12858:	f45fd0ef          	jal	ra,1079c <_lseek_r>
   1285c:	00c41783          	lh	a5,12(s0)
   12860:	fb1ff06f          	j	12810 <__swrite+0x34>

00012864 <__sseek>:
   12864:	ff010113          	addi	sp,sp,-16
   12868:	00812423          	sw	s0,8(sp)
   1286c:	00058413          	mv	s0,a1
   12870:	00e59583          	lh	a1,14(a1)
   12874:	00112623          	sw	ra,12(sp)
   12878:	f25fd0ef          	jal	ra,1079c <_lseek_r>
   1287c:	fff00793          	li	a5,-1
   12880:	02f50463          	beq	a0,a5,128a8 <__sseek+0x44>
   12884:	00c45783          	lhu	a5,12(s0)
   12888:	00001737          	lui	a4,0x1
   1288c:	00c12083          	lw	ra,12(sp)
   12890:	00e7e7b3          	or	a5,a5,a4
   12894:	04a42823          	sw	a0,80(s0)
   12898:	00f41623          	sh	a5,12(s0)
   1289c:	00812403          	lw	s0,8(sp)
   128a0:	01010113          	addi	sp,sp,16
   128a4:	00008067          	ret
   128a8:	00c45783          	lhu	a5,12(s0)
   128ac:	fffff737          	lui	a4,0xfffff
   128b0:	fff70713          	addi	a4,a4,-1 # ffffefff <__BSS_END__+0xfffe6783>
   128b4:	00e7f7b3          	and	a5,a5,a4
   128b8:	00c12083          	lw	ra,12(sp)
   128bc:	00f41623          	sh	a5,12(s0)
   128c0:	00812403          	lw	s0,8(sp)
   128c4:	01010113          	addi	sp,sp,16
   128c8:	00008067          	ret

000128cc <__sclose>:
   128cc:	00e59583          	lh	a1,14(a1)
   128d0:	da5fd06f          	j	10674 <_close_r>

000128d4 <__swsetup_r>:
   128d4:	000157b7          	lui	a5,0x15
   128d8:	8347a783          	lw	a5,-1996(a5) # 14834 <_impure_ptr>
   128dc:	ff010113          	addi	sp,sp,-16
   128e0:	00812423          	sw	s0,8(sp)
   128e4:	00912223          	sw	s1,4(sp)
   128e8:	00112623          	sw	ra,12(sp)
   128ec:	00050493          	mv	s1,a0
   128f0:	00058413          	mv	s0,a1
   128f4:	00078663          	beqz	a5,12900 <__swsetup_r+0x2c>
   128f8:	0387a703          	lw	a4,56(a5)
   128fc:	08070263          	beqz	a4,12980 <__swsetup_r+0xac>
   12900:	00c41703          	lh	a4,12(s0)
   12904:	01071793          	slli	a5,a4,0x10
   12908:	00877693          	andi	a3,a4,8
   1290c:	0107d793          	srli	a5,a5,0x10
   12910:	08068663          	beqz	a3,1299c <__swsetup_r+0xc8>
   12914:	01042683          	lw	a3,16(s0)
   12918:	0a068663          	beqz	a3,129c4 <__swsetup_r+0xf0>
   1291c:	0017f613          	andi	a2,a5,1
   12920:	02061863          	bnez	a2,12950 <__swsetup_r+0x7c>
   12924:	0027f613          	andi	a2,a5,2
   12928:	0c061463          	bnez	a2,129f0 <__swsetup_r+0x11c>
   1292c:	01442603          	lw	a2,20(s0)
   12930:	00c42423          	sw	a2,8(s0)
   12934:	02068863          	beqz	a3,12964 <__swsetup_r+0x90>
   12938:	00000513          	li	a0,0
   1293c:	00c12083          	lw	ra,12(sp)
   12940:	00812403          	lw	s0,8(sp)
   12944:	00412483          	lw	s1,4(sp)
   12948:	01010113          	addi	sp,sp,16
   1294c:	00008067          	ret
   12950:	01442603          	lw	a2,20(s0)
   12954:	00042423          	sw	zero,8(s0)
   12958:	40c00633          	neg	a2,a2
   1295c:	00c42c23          	sw	a2,24(s0)
   12960:	fc069ce3          	bnez	a3,12938 <__swsetup_r+0x64>
   12964:	0807f793          	andi	a5,a5,128
   12968:	00000513          	li	a0,0
   1296c:	fc0788e3          	beqz	a5,1293c <__swsetup_r+0x68>
   12970:	04076713          	ori	a4,a4,64
   12974:	00e41623          	sh	a4,12(s0)
   12978:	fff00513          	li	a0,-1
   1297c:	fc1ff06f          	j	1293c <__swsetup_r+0x68>
   12980:	00078513          	mv	a0,a5
   12984:	e98fe0ef          	jal	ra,1101c <__sinit>
   12988:	00c41703          	lh	a4,12(s0)
   1298c:	01071793          	slli	a5,a4,0x10
   12990:	00877693          	andi	a3,a4,8
   12994:	0107d793          	srli	a5,a5,0x10
   12998:	f6069ee3          	bnez	a3,12914 <__swsetup_r+0x40>
   1299c:	0107f693          	andi	a3,a5,16
   129a0:	08068863          	beqz	a3,12a30 <__swsetup_r+0x15c>
   129a4:	0047f793          	andi	a5,a5,4
   129a8:	04079a63          	bnez	a5,129fc <__swsetup_r+0x128>
   129ac:	01042683          	lw	a3,16(s0)
   129b0:	00876713          	ori	a4,a4,8
   129b4:	01071793          	slli	a5,a4,0x10
   129b8:	00e41623          	sh	a4,12(s0)
   129bc:	0107d793          	srli	a5,a5,0x10
   129c0:	f4069ee3          	bnez	a3,1291c <__swsetup_r+0x48>
   129c4:	2807f613          	andi	a2,a5,640
   129c8:	20000593          	li	a1,512
   129cc:	f4b608e3          	beq	a2,a1,1291c <__swsetup_r+0x48>
   129d0:	00040593          	mv	a1,s0
   129d4:	00048513          	mv	a0,s1
   129d8:	129000ef          	jal	ra,13300 <__smakebuf_r>
   129dc:	00c41703          	lh	a4,12(s0)
   129e0:	01042683          	lw	a3,16(s0)
   129e4:	01071793          	slli	a5,a4,0x10
   129e8:	0107d793          	srli	a5,a5,0x10
   129ec:	f31ff06f          	j	1291c <__swsetup_r+0x48>
   129f0:	00000613          	li	a2,0
   129f4:	00c42423          	sw	a2,8(s0)
   129f8:	f3dff06f          	j	12934 <__swsetup_r+0x60>
   129fc:	03042583          	lw	a1,48(s0)
   12a00:	00058e63          	beqz	a1,12a1c <__swsetup_r+0x148>
   12a04:	04040793          	addi	a5,s0,64
   12a08:	00f58863          	beq	a1,a5,12a18 <__swsetup_r+0x144>
   12a0c:	00048513          	mv	a0,s1
   12a10:	5e4000ef          	jal	ra,12ff4 <_free_r>
   12a14:	00c41703          	lh	a4,12(s0)
   12a18:	02042823          	sw	zero,48(s0)
   12a1c:	01042683          	lw	a3,16(s0)
   12a20:	fdb77713          	andi	a4,a4,-37
   12a24:	00042223          	sw	zero,4(s0)
   12a28:	00d42023          	sw	a3,0(s0)
   12a2c:	f85ff06f          	j	129b0 <__swsetup_r+0xdc>
   12a30:	00900793          	li	a5,9
   12a34:	00f4a023          	sw	a5,0(s1)
   12a38:	04076713          	ori	a4,a4,64
   12a3c:	00e41623          	sh	a4,12(s0)
   12a40:	fff00513          	li	a0,-1
   12a44:	ef9ff06f          	j	1293c <__swsetup_r+0x68>

00012a48 <_fclose_r>:
   12a48:	ff010113          	addi	sp,sp,-16
   12a4c:	00112623          	sw	ra,12(sp)
   12a50:	00812423          	sw	s0,8(sp)
   12a54:	00912223          	sw	s1,4(sp)
   12a58:	01212023          	sw	s2,0(sp)
   12a5c:	02058063          	beqz	a1,12a7c <_fclose_r+0x34>
   12a60:	00058413          	mv	s0,a1
   12a64:	00050493          	mv	s1,a0
   12a68:	00050663          	beqz	a0,12a74 <_fclose_r+0x2c>
   12a6c:	03852783          	lw	a5,56(a0)
   12a70:	0a078c63          	beqz	a5,12b28 <_fclose_r+0xe0>
   12a74:	00c41783          	lh	a5,12(s0)
   12a78:	02079263          	bnez	a5,12a9c <_fclose_r+0x54>
   12a7c:	00c12083          	lw	ra,12(sp)
   12a80:	00812403          	lw	s0,8(sp)
   12a84:	00000913          	li	s2,0
   12a88:	00412483          	lw	s1,4(sp)
   12a8c:	00090513          	mv	a0,s2
   12a90:	00012903          	lw	s2,0(sp)
   12a94:	01010113          	addi	sp,sp,16
   12a98:	00008067          	ret
   12a9c:	00040593          	mv	a1,s0
   12aa0:	00048513          	mv	a0,s1
   12aa4:	0c4000ef          	jal	ra,12b68 <__sflush_r>
   12aa8:	02c42783          	lw	a5,44(s0)
   12aac:	00050913          	mv	s2,a0
   12ab0:	00078a63          	beqz	a5,12ac4 <_fclose_r+0x7c>
   12ab4:	01c42583          	lw	a1,28(s0)
   12ab8:	00048513          	mv	a0,s1
   12abc:	000780e7          	jalr	a5
   12ac0:	06054c63          	bltz	a0,12b38 <_fclose_r+0xf0>
   12ac4:	00c45783          	lhu	a5,12(s0)
   12ac8:	0807f793          	andi	a5,a5,128
   12acc:	06079e63          	bnez	a5,12b48 <_fclose_r+0x100>
   12ad0:	03042583          	lw	a1,48(s0)
   12ad4:	00058c63          	beqz	a1,12aec <_fclose_r+0xa4>
   12ad8:	04040793          	addi	a5,s0,64
   12adc:	00f58663          	beq	a1,a5,12ae8 <_fclose_r+0xa0>
   12ae0:	00048513          	mv	a0,s1
   12ae4:	510000ef          	jal	ra,12ff4 <_free_r>
   12ae8:	02042823          	sw	zero,48(s0)
   12aec:	04442583          	lw	a1,68(s0)
   12af0:	00058863          	beqz	a1,12b00 <_fclose_r+0xb8>
   12af4:	00048513          	mv	a0,s1
   12af8:	4fc000ef          	jal	ra,12ff4 <_free_r>
   12afc:	04042223          	sw	zero,68(s0)
   12b00:	d2cfe0ef          	jal	ra,1102c <__sfp_lock_acquire>
   12b04:	00041623          	sh	zero,12(s0)
   12b08:	d28fe0ef          	jal	ra,11030 <__sfp_lock_release>
   12b0c:	00c12083          	lw	ra,12(sp)
   12b10:	00812403          	lw	s0,8(sp)
   12b14:	00412483          	lw	s1,4(sp)
   12b18:	00090513          	mv	a0,s2
   12b1c:	00012903          	lw	s2,0(sp)
   12b20:	01010113          	addi	sp,sp,16
   12b24:	00008067          	ret
   12b28:	cf4fe0ef          	jal	ra,1101c <__sinit>
   12b2c:	00c41783          	lh	a5,12(s0)
   12b30:	f40786e3          	beqz	a5,12a7c <_fclose_r+0x34>
   12b34:	f69ff06f          	j	12a9c <_fclose_r+0x54>
   12b38:	00c45783          	lhu	a5,12(s0)
   12b3c:	fff00913          	li	s2,-1
   12b40:	0807f793          	andi	a5,a5,128
   12b44:	f80786e3          	beqz	a5,12ad0 <_fclose_r+0x88>
   12b48:	01042583          	lw	a1,16(s0)
   12b4c:	00048513          	mv	a0,s1
   12b50:	4a4000ef          	jal	ra,12ff4 <_free_r>
   12b54:	f7dff06f          	j	12ad0 <_fclose_r+0x88>

00012b58 <fclose>:
   12b58:	000157b7          	lui	a5,0x15
   12b5c:	00050593          	mv	a1,a0
   12b60:	8347a503          	lw	a0,-1996(a5) # 14834 <_impure_ptr>
   12b64:	ee5ff06f          	j	12a48 <_fclose_r>

00012b68 <__sflush_r>:
   12b68:	00c59783          	lh	a5,12(a1)
   12b6c:	fe010113          	addi	sp,sp,-32
   12b70:	00812c23          	sw	s0,24(sp)
   12b74:	01312623          	sw	s3,12(sp)
   12b78:	00112e23          	sw	ra,28(sp)
   12b7c:	00912a23          	sw	s1,20(sp)
   12b80:	01212823          	sw	s2,16(sp)
   12b84:	0087f693          	andi	a3,a5,8
   12b88:	00058413          	mv	s0,a1
   12b8c:	00050993          	mv	s3,a0
   12b90:	10069c63          	bnez	a3,12ca8 <__sflush_r+0x140>
   12b94:	00001737          	lui	a4,0x1
   12b98:	80070713          	addi	a4,a4,-2048 # 800 <main-0xf894>
   12b9c:	0045a683          	lw	a3,4(a1)
   12ba0:	00e7e7b3          	or	a5,a5,a4
   12ba4:	00f59623          	sh	a5,12(a1)
   12ba8:	18d05463          	blez	a3,12d30 <__sflush_r+0x1c8>
   12bac:	02842703          	lw	a4,40(s0)
   12bb0:	0c070c63          	beqz	a4,12c88 <__sflush_r+0x120>
   12bb4:	01079793          	slli	a5,a5,0x10
   12bb8:	0107d793          	srli	a5,a5,0x10
   12bbc:	000016b7          	lui	a3,0x1
   12bc0:	0009a483          	lw	s1,0(s3)
   12bc4:	00d7f6b3          	and	a3,a5,a3
   12bc8:	0009a023          	sw	zero,0(s3)
   12bcc:	01c42583          	lw	a1,28(s0)
   12bd0:	16069a63          	bnez	a3,12d44 <__sflush_r+0x1dc>
   12bd4:	00100693          	li	a3,1
   12bd8:	00000613          	li	a2,0
   12bdc:	00098513          	mv	a0,s3
   12be0:	000700e7          	jalr	a4
   12be4:	fff00793          	li	a5,-1
   12be8:	1af50063          	beq	a0,a5,12d88 <__sflush_r+0x220>
   12bec:	00c45783          	lhu	a5,12(s0)
   12bf0:	02842703          	lw	a4,40(s0)
   12bf4:	01c42583          	lw	a1,28(s0)
   12bf8:	0047f793          	andi	a5,a5,4
   12bfc:	00078e63          	beqz	a5,12c18 <__sflush_r+0xb0>
   12c00:	00442683          	lw	a3,4(s0)
   12c04:	03042783          	lw	a5,48(s0)
   12c08:	40d50533          	sub	a0,a0,a3
   12c0c:	00078663          	beqz	a5,12c18 <__sflush_r+0xb0>
   12c10:	03c42783          	lw	a5,60(s0)
   12c14:	40f50533          	sub	a0,a0,a5
   12c18:	00050613          	mv	a2,a0
   12c1c:	00000693          	li	a3,0
   12c20:	00098513          	mv	a0,s3
   12c24:	000700e7          	jalr	a4
   12c28:	fff00793          	li	a5,-1
   12c2c:	12f51063          	bne	a0,a5,12d4c <__sflush_r+0x1e4>
   12c30:	0009a703          	lw	a4,0(s3)
   12c34:	00c41783          	lh	a5,12(s0)
   12c38:	16070c63          	beqz	a4,12db0 <__sflush_r+0x248>
   12c3c:	01d00693          	li	a3,29
   12c40:	00d70663          	beq	a4,a3,12c4c <__sflush_r+0xe4>
   12c44:	01600693          	li	a3,22
   12c48:	0cd71263          	bne	a4,a3,12d0c <__sflush_r+0x1a4>
   12c4c:	01042683          	lw	a3,16(s0)
   12c50:	fffff737          	lui	a4,0xfffff
   12c54:	7ff70713          	addi	a4,a4,2047 # fffff7ff <__BSS_END__+0xfffe6f83>
   12c58:	00e7f7b3          	and	a5,a5,a4
   12c5c:	00f41623          	sh	a5,12(s0)
   12c60:	00042223          	sw	zero,4(s0)
   12c64:	00d42023          	sw	a3,0(s0)
   12c68:	03042583          	lw	a1,48(s0)
   12c6c:	0099a023          	sw	s1,0(s3)
   12c70:	00058c63          	beqz	a1,12c88 <__sflush_r+0x120>
   12c74:	04040793          	addi	a5,s0,64
   12c78:	00f58663          	beq	a1,a5,12c84 <__sflush_r+0x11c>
   12c7c:	00098513          	mv	a0,s3
   12c80:	374000ef          	jal	ra,12ff4 <_free_r>
   12c84:	02042823          	sw	zero,48(s0)
   12c88:	00000513          	li	a0,0
   12c8c:	01c12083          	lw	ra,28(sp)
   12c90:	01812403          	lw	s0,24(sp)
   12c94:	01412483          	lw	s1,20(sp)
   12c98:	01012903          	lw	s2,16(sp)
   12c9c:	00c12983          	lw	s3,12(sp)
   12ca0:	02010113          	addi	sp,sp,32
   12ca4:	00008067          	ret
   12ca8:	0105a903          	lw	s2,16(a1)
   12cac:	fc090ee3          	beqz	s2,12c88 <__sflush_r+0x120>
   12cb0:	0005a483          	lw	s1,0(a1)
   12cb4:	01079713          	slli	a4,a5,0x10
   12cb8:	01075713          	srli	a4,a4,0x10
   12cbc:	00377713          	andi	a4,a4,3
   12cc0:	0125a023          	sw	s2,0(a1)
   12cc4:	412484b3          	sub	s1,s1,s2
   12cc8:	06071a63          	bnez	a4,12d3c <__sflush_r+0x1d4>
   12ccc:	0145a783          	lw	a5,20(a1)
   12cd0:	00f42423          	sw	a5,8(s0)
   12cd4:	00904863          	bgtz	s1,12ce4 <__sflush_r+0x17c>
   12cd8:	fb1ff06f          	j	12c88 <__sflush_r+0x120>
   12cdc:	00a90933          	add	s2,s2,a0
   12ce0:	fa9054e3          	blez	s1,12c88 <__sflush_r+0x120>
   12ce4:	02442783          	lw	a5,36(s0)
   12ce8:	01c42583          	lw	a1,28(s0)
   12cec:	00048693          	mv	a3,s1
   12cf0:	00090613          	mv	a2,s2
   12cf4:	00098513          	mv	a0,s3
   12cf8:	000780e7          	jalr	a5
   12cfc:	40a484b3          	sub	s1,s1,a0
   12d00:	fca04ee3          	bgtz	a0,12cdc <__sflush_r+0x174>
   12d04:	00c45783          	lhu	a5,12(s0)
   12d08:	fff00513          	li	a0,-1
   12d0c:	0407e793          	ori	a5,a5,64
   12d10:	01c12083          	lw	ra,28(sp)
   12d14:	00f41623          	sh	a5,12(s0)
   12d18:	01812403          	lw	s0,24(sp)
   12d1c:	01412483          	lw	s1,20(sp)
   12d20:	01012903          	lw	s2,16(sp)
   12d24:	00c12983          	lw	s3,12(sp)
   12d28:	02010113          	addi	sp,sp,32
   12d2c:	00008067          	ret
   12d30:	03c5a703          	lw	a4,60(a1)
   12d34:	e6e04ce3          	bgtz	a4,12bac <__sflush_r+0x44>
   12d38:	f51ff06f          	j	12c88 <__sflush_r+0x120>
   12d3c:	00000793          	li	a5,0
   12d40:	f91ff06f          	j	12cd0 <__sflush_r+0x168>
   12d44:	05042503          	lw	a0,80(s0)
   12d48:	eb1ff06f          	j	12bf8 <__sflush_r+0x90>
   12d4c:	00c45783          	lhu	a5,12(s0)
   12d50:	fffff737          	lui	a4,0xfffff
   12d54:	7ff70713          	addi	a4,a4,2047 # fffff7ff <__BSS_END__+0xfffe6f83>
   12d58:	00e7f7b3          	and	a5,a5,a4
   12d5c:	01042683          	lw	a3,16(s0)
   12d60:	01079793          	slli	a5,a5,0x10
   12d64:	4107d793          	srai	a5,a5,0x10
   12d68:	00c7d713          	srli	a4,a5,0xc
   12d6c:	00f41623          	sh	a5,12(s0)
   12d70:	00042223          	sw	zero,4(s0)
   12d74:	00d42023          	sw	a3,0(s0)
   12d78:	00177793          	andi	a5,a4,1
   12d7c:	ee0786e3          	beqz	a5,12c68 <__sflush_r+0x100>
   12d80:	04a42823          	sw	a0,80(s0)
   12d84:	ee5ff06f          	j	12c68 <__sflush_r+0x100>
   12d88:	0009a783          	lw	a5,0(s3)
   12d8c:	e60780e3          	beqz	a5,12bec <__sflush_r+0x84>
   12d90:	01d00713          	li	a4,29
   12d94:	02e78863          	beq	a5,a4,12dc4 <__sflush_r+0x25c>
   12d98:	01600713          	li	a4,22
   12d9c:	02e78463          	beq	a5,a4,12dc4 <__sflush_r+0x25c>
   12da0:	00c45783          	lhu	a5,12(s0)
   12da4:	0407e793          	ori	a5,a5,64
   12da8:	00f41623          	sh	a5,12(s0)
   12dac:	ee1ff06f          	j	12c8c <__sflush_r+0x124>
   12db0:	fffff737          	lui	a4,0xfffff
   12db4:	7ff70713          	addi	a4,a4,2047 # fffff7ff <__BSS_END__+0xfffe6f83>
   12db8:	01042683          	lw	a3,16(s0)
   12dbc:	00e7f7b3          	and	a5,a5,a4
   12dc0:	fa9ff06f          	j	12d68 <__sflush_r+0x200>
   12dc4:	0099a023          	sw	s1,0(s3)
   12dc8:	00000513          	li	a0,0
   12dcc:	ec1ff06f          	j	12c8c <__sflush_r+0x124>

00012dd0 <_fflush_r>:
   12dd0:	fe010113          	addi	sp,sp,-32
   12dd4:	00812c23          	sw	s0,24(sp)
   12dd8:	00112e23          	sw	ra,28(sp)
   12ddc:	00050413          	mv	s0,a0
   12de0:	00050663          	beqz	a0,12dec <_fflush_r+0x1c>
   12de4:	03852783          	lw	a5,56(a0)
   12de8:	02078063          	beqz	a5,12e08 <_fflush_r+0x38>
   12dec:	00c59783          	lh	a5,12(a1)
   12df0:	02079663          	bnez	a5,12e1c <_fflush_r+0x4c>
   12df4:	01c12083          	lw	ra,28(sp)
   12df8:	01812403          	lw	s0,24(sp)
   12dfc:	00000513          	li	a0,0
   12e00:	02010113          	addi	sp,sp,32
   12e04:	00008067          	ret
   12e08:	00b12623          	sw	a1,12(sp)
   12e0c:	a10fe0ef          	jal	ra,1101c <__sinit>
   12e10:	00c12583          	lw	a1,12(sp)
   12e14:	00c59783          	lh	a5,12(a1)
   12e18:	fc078ee3          	beqz	a5,12df4 <_fflush_r+0x24>
   12e1c:	00040513          	mv	a0,s0
   12e20:	01812403          	lw	s0,24(sp)
   12e24:	01c12083          	lw	ra,28(sp)
   12e28:	02010113          	addi	sp,sp,32
   12e2c:	d3dff06f          	j	12b68 <__sflush_r>

00012e30 <fflush>:
   12e30:	06050063          	beqz	a0,12e90 <fflush+0x60>
   12e34:	000157b7          	lui	a5,0x15
   12e38:	00050593          	mv	a1,a0
   12e3c:	8347a503          	lw	a0,-1996(a5) # 14834 <_impure_ptr>
   12e40:	00050663          	beqz	a0,12e4c <fflush+0x1c>
   12e44:	03852783          	lw	a5,56(a0)
   12e48:	00078c63          	beqz	a5,12e60 <fflush+0x30>
   12e4c:	00c59783          	lh	a5,12(a1)
   12e50:	00079663          	bnez	a5,12e5c <fflush+0x2c>
   12e54:	00000513          	li	a0,0
   12e58:	00008067          	ret
   12e5c:	d0dff06f          	j	12b68 <__sflush_r>
   12e60:	fe010113          	addi	sp,sp,-32
   12e64:	00b12623          	sw	a1,12(sp)
   12e68:	00a12423          	sw	a0,8(sp)
   12e6c:	00112e23          	sw	ra,28(sp)
   12e70:	9acfe0ef          	jal	ra,1101c <__sinit>
   12e74:	00c12583          	lw	a1,12(sp)
   12e78:	00812503          	lw	a0,8(sp)
   12e7c:	00c59783          	lh	a5,12(a1)
   12e80:	02078263          	beqz	a5,12ea4 <fflush+0x74>
   12e84:	01c12083          	lw	ra,28(sp)
   12e88:	02010113          	addi	sp,sp,32
   12e8c:	cddff06f          	j	12b68 <__sflush_r>
   12e90:	000157b7          	lui	a5,0x15
   12e94:	8307a503          	lw	a0,-2000(a5) # 14830 <_global_impure_ptr>
   12e98:	000135b7          	lui	a1,0x13
   12e9c:	dd058593          	addi	a1,a1,-560 # 12dd0 <_fflush_r>
   12ea0:	f24fe06f          	j	115c4 <_fwalk_reent>
   12ea4:	01c12083          	lw	ra,28(sp)
   12ea8:	00000513          	li	a0,0
   12eac:	02010113          	addi	sp,sp,32
   12eb0:	00008067          	ret

00012eb4 <_malloc_trim_r>:
   12eb4:	fe010113          	addi	sp,sp,-32
   12eb8:	01312623          	sw	s3,12(sp)
   12ebc:	000149b7          	lui	s3,0x14
   12ec0:	00812c23          	sw	s0,24(sp)
   12ec4:	00912a23          	sw	s1,20(sp)
   12ec8:	01212823          	sw	s2,16(sp)
   12ecc:	01412423          	sw	s4,8(sp)
   12ed0:	00112e23          	sw	ra,28(sp)
   12ed4:	00058a13          	mv	s4,a1
   12ed8:	00050913          	mv	s2,a0
   12edc:	42898993          	addi	s3,s3,1064 # 14428 <__malloc_av_>
   12ee0:	b30ff0ef          	jal	ra,12210 <__malloc_lock>
   12ee4:	0089a703          	lw	a4,8(s3)
   12ee8:	000017b7          	lui	a5,0x1
   12eec:	fef78413          	addi	s0,a5,-17 # fef <main-0xf0a5>
   12ef0:	00472483          	lw	s1,4(a4)
   12ef4:	41440433          	sub	s0,s0,s4
   12ef8:	ffc4f493          	andi	s1,s1,-4
   12efc:	00940433          	add	s0,s0,s1
   12f00:	00c45413          	srli	s0,s0,0xc
   12f04:	fff40413          	addi	s0,s0,-1
   12f08:	00c41413          	slli	s0,s0,0xc
   12f0c:	00f44e63          	blt	s0,a5,12f28 <_malloc_trim_r+0x74>
   12f10:	00000593          	li	a1,0
   12f14:	00090513          	mv	a0,s2
   12f18:	9b5fd0ef          	jal	ra,108cc <_sbrk_r>
   12f1c:	0089a783          	lw	a5,8(s3)
   12f20:	009787b3          	add	a5,a5,s1
   12f24:	02f50863          	beq	a0,a5,12f54 <_malloc_trim_r+0xa0>
   12f28:	00090513          	mv	a0,s2
   12f2c:	ae8ff0ef          	jal	ra,12214 <__malloc_unlock>
   12f30:	01c12083          	lw	ra,28(sp)
   12f34:	01812403          	lw	s0,24(sp)
   12f38:	01412483          	lw	s1,20(sp)
   12f3c:	01012903          	lw	s2,16(sp)
   12f40:	00c12983          	lw	s3,12(sp)
   12f44:	00812a03          	lw	s4,8(sp)
   12f48:	00000513          	li	a0,0
   12f4c:	02010113          	addi	sp,sp,32
   12f50:	00008067          	ret
   12f54:	408005b3          	neg	a1,s0
   12f58:	00090513          	mv	a0,s2
   12f5c:	971fd0ef          	jal	ra,108cc <_sbrk_r>
   12f60:	fff00793          	li	a5,-1
   12f64:	04f50a63          	beq	a0,a5,12fb8 <_malloc_trim_r+0x104>
   12f68:	000197b7          	lui	a5,0x19
   12f6c:	85478793          	addi	a5,a5,-1964 # 18854 <__malloc_current_mallinfo>
   12f70:	0007a703          	lw	a4,0(a5)
   12f74:	0089a683          	lw	a3,8(s3)
   12f78:	408484b3          	sub	s1,s1,s0
   12f7c:	0014e493          	ori	s1,s1,1
   12f80:	40870733          	sub	a4,a4,s0
   12f84:	00090513          	mv	a0,s2
   12f88:	0096a223          	sw	s1,4(a3) # 1004 <main-0xf090>
   12f8c:	00e7a023          	sw	a4,0(a5)
   12f90:	a84ff0ef          	jal	ra,12214 <__malloc_unlock>
   12f94:	01c12083          	lw	ra,28(sp)
   12f98:	01812403          	lw	s0,24(sp)
   12f9c:	01412483          	lw	s1,20(sp)
   12fa0:	01012903          	lw	s2,16(sp)
   12fa4:	00c12983          	lw	s3,12(sp)
   12fa8:	00812a03          	lw	s4,8(sp)
   12fac:	00100513          	li	a0,1
   12fb0:	02010113          	addi	sp,sp,32
   12fb4:	00008067          	ret
   12fb8:	00000593          	li	a1,0
   12fbc:	00090513          	mv	a0,s2
   12fc0:	90dfd0ef          	jal	ra,108cc <_sbrk_r>
   12fc4:	0089a703          	lw	a4,8(s3)
   12fc8:	00f00693          	li	a3,15
   12fcc:	40e507b3          	sub	a5,a0,a4
   12fd0:	f4f6dce3          	bge	a3,a5,12f28 <_malloc_trim_r+0x74>
   12fd4:	000156b7          	lui	a3,0x15
   12fd8:	8386a683          	lw	a3,-1992(a3) # 14838 <__malloc_sbrk_base>
   12fdc:	0017e793          	ori	a5,a5,1
   12fe0:	00f72223          	sw	a5,4(a4)
   12fe4:	40d50533          	sub	a0,a0,a3
   12fe8:	000196b7          	lui	a3,0x19
   12fec:	84a6aa23          	sw	a0,-1964(a3) # 18854 <__malloc_current_mallinfo>
   12ff0:	f39ff06f          	j	12f28 <_malloc_trim_r+0x74>

00012ff4 <_free_r>:
   12ff4:	12058a63          	beqz	a1,13128 <_free_r+0x134>
   12ff8:	ff010113          	addi	sp,sp,-16
   12ffc:	00812423          	sw	s0,8(sp)
   13000:	00912223          	sw	s1,4(sp)
   13004:	00058413          	mv	s0,a1
   13008:	00050493          	mv	s1,a0
   1300c:	00112623          	sw	ra,12(sp)
   13010:	a00ff0ef          	jal	ra,12210 <__malloc_lock>
   13014:	ffc42803          	lw	a6,-4(s0)
   13018:	ff840713          	addi	a4,s0,-8
   1301c:	000145b7          	lui	a1,0x14
   13020:	ffe87793          	andi	a5,a6,-2
   13024:	00f70633          	add	a2,a4,a5
   13028:	42858593          	addi	a1,a1,1064 # 14428 <__malloc_av_>
   1302c:	00462683          	lw	a3,4(a2)
   13030:	0085a503          	lw	a0,8(a1)
   13034:	ffc6f693          	andi	a3,a3,-4
   13038:	1ac50a63          	beq	a0,a2,131ec <_free_r+0x1f8>
   1303c:	00d62223          	sw	a3,4(a2)
   13040:	00187813          	andi	a6,a6,1
   13044:	00d60533          	add	a0,a2,a3
   13048:	0a081063          	bnez	a6,130e8 <_free_r+0xf4>
   1304c:	ff842303          	lw	t1,-8(s0)
   13050:	00452803          	lw	a6,4(a0)
   13054:	00014537          	lui	a0,0x14
   13058:	40670733          	sub	a4,a4,t1
   1305c:	00872883          	lw	a7,8(a4)
   13060:	43050513          	addi	a0,a0,1072 # 14430 <__malloc_av_+0x8>
   13064:	006787b3          	add	a5,a5,t1
   13068:	00187813          	andi	a6,a6,1
   1306c:	14a88063          	beq	a7,a0,131ac <_free_r+0x1b8>
   13070:	00c72303          	lw	t1,12(a4)
   13074:	0068a623          	sw	t1,12(a7)
   13078:	01132423          	sw	a7,8(t1)
   1307c:	1e080063          	beqz	a6,1325c <_free_r+0x268>
   13080:	0017e693          	ori	a3,a5,1
   13084:	00d72223          	sw	a3,4(a4)
   13088:	00f62023          	sw	a5,0(a2)
   1308c:	1ff00693          	li	a3,511
   13090:	0af6e863          	bltu	a3,a5,13140 <_free_r+0x14c>
   13094:	ff87f693          	andi	a3,a5,-8
   13098:	00868693          	addi	a3,a3,8
   1309c:	0045a503          	lw	a0,4(a1)
   130a0:	00d586b3          	add	a3,a1,a3
   130a4:	0006a603          	lw	a2,0(a3)
   130a8:	0057d813          	srli	a6,a5,0x5
   130ac:	00100793          	li	a5,1
   130b0:	010797b3          	sll	a5,a5,a6
   130b4:	00a7e7b3          	or	a5,a5,a0
   130b8:	ff868513          	addi	a0,a3,-8
   130bc:	00a72623          	sw	a0,12(a4)
   130c0:	00c72423          	sw	a2,8(a4)
   130c4:	00f5a223          	sw	a5,4(a1)
   130c8:	00e6a023          	sw	a4,0(a3)
   130cc:	00e62623          	sw	a4,12(a2)
   130d0:	00812403          	lw	s0,8(sp)
   130d4:	00c12083          	lw	ra,12(sp)
   130d8:	00048513          	mv	a0,s1
   130dc:	00412483          	lw	s1,4(sp)
   130e0:	01010113          	addi	sp,sp,16
   130e4:	930ff06f          	j	12214 <__malloc_unlock>
   130e8:	00452503          	lw	a0,4(a0)
   130ec:	00157513          	andi	a0,a0,1
   130f0:	02051e63          	bnez	a0,1312c <_free_r+0x138>
   130f4:	00014537          	lui	a0,0x14
   130f8:	00d787b3          	add	a5,a5,a3
   130fc:	43050513          	addi	a0,a0,1072 # 14430 <__malloc_av_+0x8>
   13100:	00862683          	lw	a3,8(a2)
   13104:	0017e893          	ori	a7,a5,1
   13108:	00f70833          	add	a6,a4,a5
   1310c:	16a68463          	beq	a3,a0,13274 <_free_r+0x280>
   13110:	00c62603          	lw	a2,12(a2)
   13114:	00c6a623          	sw	a2,12(a3)
   13118:	00d62423          	sw	a3,8(a2)
   1311c:	01172223          	sw	a7,4(a4)
   13120:	00f82023          	sw	a5,0(a6)
   13124:	f69ff06f          	j	1308c <_free_r+0x98>
   13128:	00008067          	ret
   1312c:	0017e693          	ori	a3,a5,1
   13130:	fed42e23          	sw	a3,-4(s0)
   13134:	00f62023          	sw	a5,0(a2)
   13138:	1ff00693          	li	a3,511
   1313c:	f4f6fce3          	bgeu	a3,a5,13094 <_free_r+0xa0>
   13140:	0097d693          	srli	a3,a5,0x9
   13144:	00400613          	li	a2,4
   13148:	0ed66863          	bltu	a2,a3,13238 <_free_r+0x244>
   1314c:	0067d693          	srli	a3,a5,0x6
   13150:	03968813          	addi	a6,a3,57
   13154:	03868613          	addi	a2,a3,56
   13158:	00381813          	slli	a6,a6,0x3
   1315c:	01058833          	add	a6,a1,a6
   13160:	00082683          	lw	a3,0(a6)
   13164:	ff880813          	addi	a6,a6,-8
   13168:	12d80463          	beq	a6,a3,13290 <_free_r+0x29c>
   1316c:	0046a603          	lw	a2,4(a3)
   13170:	ffc67613          	andi	a2,a2,-4
   13174:	00c7f663          	bgeu	a5,a2,13180 <_free_r+0x18c>
   13178:	0086a683          	lw	a3,8(a3)
   1317c:	fed818e3          	bne	a6,a3,1316c <_free_r+0x178>
   13180:	00c6a803          	lw	a6,12(a3)
   13184:	01072623          	sw	a6,12(a4)
   13188:	00d72423          	sw	a3,8(a4)
   1318c:	00812403          	lw	s0,8(sp)
   13190:	00c12083          	lw	ra,12(sp)
   13194:	00e82423          	sw	a4,8(a6)
   13198:	00048513          	mv	a0,s1
   1319c:	00412483          	lw	s1,4(sp)
   131a0:	00e6a623          	sw	a4,12(a3)
   131a4:	01010113          	addi	sp,sp,16
   131a8:	86cff06f          	j	12214 <__malloc_unlock>
   131ac:	14081263          	bnez	a6,132f0 <_free_r+0x2fc>
   131b0:	00c62583          	lw	a1,12(a2)
   131b4:	00862603          	lw	a2,8(a2)
   131b8:	00f686b3          	add	a3,a3,a5
   131bc:	00812403          	lw	s0,8(sp)
   131c0:	00b62623          	sw	a1,12(a2)
   131c4:	00c5a423          	sw	a2,8(a1)
   131c8:	0016e793          	ori	a5,a3,1
   131cc:	00c12083          	lw	ra,12(sp)
   131d0:	00f72223          	sw	a5,4(a4)
   131d4:	00048513          	mv	a0,s1
   131d8:	00d70733          	add	a4,a4,a3
   131dc:	00412483          	lw	s1,4(sp)
   131e0:	00d72023          	sw	a3,0(a4)
   131e4:	01010113          	addi	sp,sp,16
   131e8:	82cff06f          	j	12214 <__malloc_unlock>
   131ec:	00187813          	andi	a6,a6,1
   131f0:	00d786b3          	add	a3,a5,a3
   131f4:	02081063          	bnez	a6,13214 <_free_r+0x220>
   131f8:	ff842503          	lw	a0,-8(s0)
   131fc:	40a70733          	sub	a4,a4,a0
   13200:	00c72783          	lw	a5,12(a4)
   13204:	00872603          	lw	a2,8(a4)
   13208:	00a686b3          	add	a3,a3,a0
   1320c:	00f62623          	sw	a5,12(a2)
   13210:	00c7a423          	sw	a2,8(a5)
   13214:	0016e613          	ori	a2,a3,1
   13218:	80c1a783          	lw	a5,-2036(gp) # 1483c <__malloc_trim_threshold>
   1321c:	00c72223          	sw	a2,4(a4)
   13220:	00e5a423          	sw	a4,8(a1)
   13224:	eaf6e6e3          	bltu	a3,a5,130d0 <_free_r+0xdc>
   13228:	8181a583          	lw	a1,-2024(gp) # 14848 <__malloc_top_pad>
   1322c:	00048513          	mv	a0,s1
   13230:	c85ff0ef          	jal	ra,12eb4 <_malloc_trim_r>
   13234:	e9dff06f          	j	130d0 <_free_r+0xdc>
   13238:	01400613          	li	a2,20
   1323c:	02d67463          	bgeu	a2,a3,13264 <_free_r+0x270>
   13240:	05400613          	li	a2,84
   13244:	06d66463          	bltu	a2,a3,132ac <_free_r+0x2b8>
   13248:	00c7d693          	srli	a3,a5,0xc
   1324c:	06f68813          	addi	a6,a3,111
   13250:	06e68613          	addi	a2,a3,110
   13254:	00381813          	slli	a6,a6,0x3
   13258:	f05ff06f          	j	1315c <_free_r+0x168>
   1325c:	00d787b3          	add	a5,a5,a3
   13260:	ea1ff06f          	j	13100 <_free_r+0x10c>
   13264:	05c68813          	addi	a6,a3,92
   13268:	05b68613          	addi	a2,a3,91
   1326c:	00381813          	slli	a6,a6,0x3
   13270:	eedff06f          	j	1315c <_free_r+0x168>
   13274:	00e5aa23          	sw	a4,20(a1)
   13278:	00e5a823          	sw	a4,16(a1)
   1327c:	00a72623          	sw	a0,12(a4)
   13280:	00a72423          	sw	a0,8(a4)
   13284:	01172223          	sw	a7,4(a4)
   13288:	00f82023          	sw	a5,0(a6)
   1328c:	e45ff06f          	j	130d0 <_free_r+0xdc>
   13290:	0045a503          	lw	a0,4(a1)
   13294:	40265613          	srai	a2,a2,0x2
   13298:	00100793          	li	a5,1
   1329c:	00c797b3          	sll	a5,a5,a2
   132a0:	00a7e7b3          	or	a5,a5,a0
   132a4:	00f5a223          	sw	a5,4(a1)
   132a8:	eddff06f          	j	13184 <_free_r+0x190>
   132ac:	15400613          	li	a2,340
   132b0:	00d66c63          	bltu	a2,a3,132c8 <_free_r+0x2d4>
   132b4:	00f7d693          	srli	a3,a5,0xf
   132b8:	07868813          	addi	a6,a3,120
   132bc:	07768613          	addi	a2,a3,119
   132c0:	00381813          	slli	a6,a6,0x3
   132c4:	e99ff06f          	j	1315c <_free_r+0x168>
   132c8:	55400613          	li	a2,1364
   132cc:	00d66c63          	bltu	a2,a3,132e4 <_free_r+0x2f0>
   132d0:	0127d693          	srli	a3,a5,0x12
   132d4:	07d68813          	addi	a6,a3,125
   132d8:	07c68613          	addi	a2,a3,124
   132dc:	00381813          	slli	a6,a6,0x3
   132e0:	e7dff06f          	j	1315c <_free_r+0x168>
   132e4:	3f800813          	li	a6,1016
   132e8:	07e00613          	li	a2,126
   132ec:	e71ff06f          	j	1315c <_free_r+0x168>
   132f0:	0017e693          	ori	a3,a5,1
   132f4:	00d72223          	sw	a3,4(a4)
   132f8:	00f62023          	sw	a5,0(a2)
   132fc:	dd5ff06f          	j	130d0 <_free_r+0xdc>

00013300 <__smakebuf_r>:
   13300:	00c5d783          	lhu	a5,12(a1)
   13304:	f8010113          	addi	sp,sp,-128
   13308:	06812c23          	sw	s0,120(sp)
   1330c:	06112e23          	sw	ra,124(sp)
   13310:	06912a23          	sw	s1,116(sp)
   13314:	07212823          	sw	s2,112(sp)
   13318:	07312623          	sw	s3,108(sp)
   1331c:	07412423          	sw	s4,104(sp)
   13320:	0027f713          	andi	a4,a5,2
   13324:	00058413          	mv	s0,a1
   13328:	02070c63          	beqz	a4,13360 <__smakebuf_r+0x60>
   1332c:	04358793          	addi	a5,a1,67
   13330:	00f5a023          	sw	a5,0(a1)
   13334:	00f5a823          	sw	a5,16(a1)
   13338:	00100793          	li	a5,1
   1333c:	00f5aa23          	sw	a5,20(a1)
   13340:	07c12083          	lw	ra,124(sp)
   13344:	07812403          	lw	s0,120(sp)
   13348:	07412483          	lw	s1,116(sp)
   1334c:	07012903          	lw	s2,112(sp)
   13350:	06c12983          	lw	s3,108(sp)
   13354:	06812a03          	lw	s4,104(sp)
   13358:	08010113          	addi	sp,sp,128
   1335c:	00008067          	ret
   13360:	00e59583          	lh	a1,14(a1)
   13364:	00050493          	mv	s1,a0
   13368:	0805cc63          	bltz	a1,13400 <__smakebuf_r+0x100>
   1336c:	00810613          	addi	a2,sp,8
   13370:	b3cfd0ef          	jal	ra,106ac <_fstat_r>
   13374:	08054463          	bltz	a0,133fc <__smakebuf_r+0xfc>
   13378:	00c12783          	lw	a5,12(sp)
   1337c:	0000f937          	lui	s2,0xf
   13380:	000019b7          	lui	s3,0x1
   13384:	00f97933          	and	s2,s2,a5
   13388:	ffffe7b7          	lui	a5,0xffffe
   1338c:	00f90933          	add	s2,s2,a5
   13390:	00193913          	seqz	s2,s2
   13394:	40000a13          	li	s4,1024
   13398:	80098993          	addi	s3,s3,-2048 # 800 <main-0xf894>
   1339c:	000a0593          	mv	a1,s4
   133a0:	00048513          	mv	a0,s1
   133a4:	ad4fe0ef          	jal	ra,11678 <_malloc_r>
   133a8:	00c41783          	lh	a5,12(s0)
   133ac:	06050e63          	beqz	a0,13428 <__smakebuf_r+0x128>
   133b0:	00011737          	lui	a4,0x11
   133b4:	ccc70713          	addi	a4,a4,-820 # 10ccc <_cleanup_r>
   133b8:	02e4ae23          	sw	a4,60(s1)
   133bc:	0807e793          	ori	a5,a5,128
   133c0:	00f41623          	sh	a5,12(s0)
   133c4:	00a42023          	sw	a0,0(s0)
   133c8:	00a42823          	sw	a0,16(s0)
   133cc:	01442a23          	sw	s4,20(s0)
   133d0:	08091863          	bnez	s2,13460 <__smakebuf_r+0x160>
   133d4:	0137e7b3          	or	a5,a5,s3
   133d8:	07c12083          	lw	ra,124(sp)
   133dc:	00f41623          	sh	a5,12(s0)
   133e0:	07812403          	lw	s0,120(sp)
   133e4:	07412483          	lw	s1,116(sp)
   133e8:	07012903          	lw	s2,112(sp)
   133ec:	06c12983          	lw	s3,108(sp)
   133f0:	06812a03          	lw	s4,104(sp)
   133f4:	08010113          	addi	sp,sp,128
   133f8:	00008067          	ret
   133fc:	00c45783          	lhu	a5,12(s0)
   13400:	0807f793          	andi	a5,a5,128
   13404:	00000913          	li	s2,0
   13408:	04078663          	beqz	a5,13454 <__smakebuf_r+0x154>
   1340c:	04000a13          	li	s4,64
   13410:	000a0593          	mv	a1,s4
   13414:	00048513          	mv	a0,s1
   13418:	a60fe0ef          	jal	ra,11678 <_malloc_r>
   1341c:	00c41783          	lh	a5,12(s0)
   13420:	00000993          	li	s3,0
   13424:	f80516e3          	bnez	a0,133b0 <__smakebuf_r+0xb0>
   13428:	2007f713          	andi	a4,a5,512
   1342c:	f0071ae3          	bnez	a4,13340 <__smakebuf_r+0x40>
   13430:	ffc7f793          	andi	a5,a5,-4
   13434:	0027e793          	ori	a5,a5,2
   13438:	04340713          	addi	a4,s0,67
   1343c:	00f41623          	sh	a5,12(s0)
   13440:	00100793          	li	a5,1
   13444:	00e42023          	sw	a4,0(s0)
   13448:	00e42823          	sw	a4,16(s0)
   1344c:	00f42a23          	sw	a5,20(s0)
   13450:	ef1ff06f          	j	13340 <__smakebuf_r+0x40>
   13454:	40000a13          	li	s4,1024
   13458:	00000993          	li	s3,0
   1345c:	f41ff06f          	j	1339c <__smakebuf_r+0x9c>
   13460:	00e41583          	lh	a1,14(s0)
   13464:	00048513          	mv	a0,s1
   13468:	104000ef          	jal	ra,1356c <_isatty_r>
   1346c:	00051663          	bnez	a0,13478 <__smakebuf_r+0x178>
   13470:	00c41783          	lh	a5,12(s0)
   13474:	f61ff06f          	j	133d4 <__smakebuf_r+0xd4>
   13478:	00c45783          	lhu	a5,12(s0)
   1347c:	ffc7f793          	andi	a5,a5,-4
   13480:	0017e793          	ori	a5,a5,1
   13484:	01079793          	slli	a5,a5,0x10
   13488:	4107d793          	srai	a5,a5,0x10
   1348c:	f49ff06f          	j	133d4 <__smakebuf_r+0xd4>

00013490 <__swhatbuf_r>:
   13490:	f9010113          	addi	sp,sp,-112
   13494:	06812423          	sw	s0,104(sp)
   13498:	00058413          	mv	s0,a1
   1349c:	00e59583          	lh	a1,14(a1)
   134a0:	06912223          	sw	s1,100(sp)
   134a4:	07212023          	sw	s2,96(sp)
   134a8:	06112623          	sw	ra,108(sp)
   134ac:	00060493          	mv	s1,a2
   134b0:	00068913          	mv	s2,a3
   134b4:	0405ca63          	bltz	a1,13508 <__swhatbuf_r+0x78>
   134b8:	00810613          	addi	a2,sp,8
   134bc:	9f0fd0ef          	jal	ra,106ac <_fstat_r>
   134c0:	04054463          	bltz	a0,13508 <__swhatbuf_r+0x78>
   134c4:	00c12703          	lw	a4,12(sp)
   134c8:	0000f7b7          	lui	a5,0xf
   134cc:	06c12083          	lw	ra,108(sp)
   134d0:	00e7f7b3          	and	a5,a5,a4
   134d4:	ffffe737          	lui	a4,0xffffe
   134d8:	00e787b3          	add	a5,a5,a4
   134dc:	06812403          	lw	s0,104(sp)
   134e0:	0017b793          	seqz	a5,a5
   134e4:	00f92023          	sw	a5,0(s2) # f000 <main-0x1094>
   134e8:	40000713          	li	a4,1024
   134ec:	00e4a023          	sw	a4,0(s1)
   134f0:	00001537          	lui	a0,0x1
   134f4:	06412483          	lw	s1,100(sp)
   134f8:	06012903          	lw	s2,96(sp)
   134fc:	80050513          	addi	a0,a0,-2048 # 800 <main-0xf894>
   13500:	07010113          	addi	sp,sp,112
   13504:	00008067          	ret
   13508:	00c45783          	lhu	a5,12(s0)
   1350c:	0807f793          	andi	a5,a5,128
   13510:	02078863          	beqz	a5,13540 <__swhatbuf_r+0xb0>
   13514:	06c12083          	lw	ra,108(sp)
   13518:	06812403          	lw	s0,104(sp)
   1351c:	00000793          	li	a5,0
   13520:	00f92023          	sw	a5,0(s2)
   13524:	04000713          	li	a4,64
   13528:	00e4a023          	sw	a4,0(s1)
   1352c:	06012903          	lw	s2,96(sp)
   13530:	06412483          	lw	s1,100(sp)
   13534:	00000513          	li	a0,0
   13538:	07010113          	addi	sp,sp,112
   1353c:	00008067          	ret
   13540:	06c12083          	lw	ra,108(sp)
   13544:	06812403          	lw	s0,104(sp)
   13548:	00000793          	li	a5,0
   1354c:	00f92023          	sw	a5,0(s2)
   13550:	40000713          	li	a4,1024
   13554:	00e4a023          	sw	a4,0(s1)
   13558:	06012903          	lw	s2,96(sp)
   1355c:	06412483          	lw	s1,100(sp)
   13560:	00000513          	li	a0,0
   13564:	07010113          	addi	sp,sp,112
   13568:	00008067          	ret

0001356c <_isatty_r>:
   1356c:	ff010113          	addi	sp,sp,-16
   13570:	00812423          	sw	s0,8(sp)
   13574:	00912223          	sw	s1,4(sp)
   13578:	00050413          	mv	s0,a0
   1357c:	00058513          	mv	a0,a1
   13580:	00112623          	sw	ra,12(sp)
   13584:	8001ae23          	sw	zero,-2020(gp) # 1484c <errno>
   13588:	c40fd0ef          	jal	ra,109c8 <_isatty>
   1358c:	fff00793          	li	a5,-1
   13590:	00f50c63          	beq	a0,a5,135a8 <_isatty_r+0x3c>
   13594:	00c12083          	lw	ra,12(sp)
   13598:	00812403          	lw	s0,8(sp)
   1359c:	00412483          	lw	s1,4(sp)
   135a0:	01010113          	addi	sp,sp,16
   135a4:	00008067          	ret
   135a8:	81c1a783          	lw	a5,-2020(gp) # 1484c <errno>
   135ac:	fe0784e3          	beqz	a5,13594 <_isatty_r+0x28>
   135b0:	00c12083          	lw	ra,12(sp)
   135b4:	00f42023          	sw	a5,0(s0)
   135b8:	00812403          	lw	s0,8(sp)
   135bc:	00412483          	lw	s1,4(sp)
   135c0:	01010113          	addi	sp,sp,16
   135c4:	00008067          	ret

000135c8 <cleanup_glue>:
   135c8:	fe010113          	addi	sp,sp,-32
   135cc:	01212823          	sw	s2,16(sp)
   135d0:	0005a903          	lw	s2,0(a1)
   135d4:	00812c23          	sw	s0,24(sp)
   135d8:	00912a23          	sw	s1,20(sp)
   135dc:	00112e23          	sw	ra,28(sp)
   135e0:	01312623          	sw	s3,12(sp)
   135e4:	01412423          	sw	s4,8(sp)
   135e8:	00058413          	mv	s0,a1
   135ec:	00050493          	mv	s1,a0
   135f0:	04090263          	beqz	s2,13634 <cleanup_glue+0x6c>
   135f4:	00092983          	lw	s3,0(s2)
   135f8:	02098863          	beqz	s3,13628 <cleanup_glue+0x60>
   135fc:	0009aa03          	lw	s4,0(s3)
   13600:	000a0e63          	beqz	s4,1361c <cleanup_glue+0x54>
   13604:	000a2583          	lw	a1,0(s4)
   13608:	00058463          	beqz	a1,13610 <cleanup_glue+0x48>
   1360c:	fbdff0ef          	jal	ra,135c8 <cleanup_glue>
   13610:	000a0593          	mv	a1,s4
   13614:	00048513          	mv	a0,s1
   13618:	9ddff0ef          	jal	ra,12ff4 <_free_r>
   1361c:	00098593          	mv	a1,s3
   13620:	00048513          	mv	a0,s1
   13624:	9d1ff0ef          	jal	ra,12ff4 <_free_r>
   13628:	00090593          	mv	a1,s2
   1362c:	00048513          	mv	a0,s1
   13630:	9c5ff0ef          	jal	ra,12ff4 <_free_r>
   13634:	00040593          	mv	a1,s0
   13638:	01812403          	lw	s0,24(sp)
   1363c:	01c12083          	lw	ra,28(sp)
   13640:	01012903          	lw	s2,16(sp)
   13644:	00c12983          	lw	s3,12(sp)
   13648:	00812a03          	lw	s4,8(sp)
   1364c:	00048513          	mv	a0,s1
   13650:	01412483          	lw	s1,20(sp)
   13654:	02010113          	addi	sp,sp,32
   13658:	99dff06f          	j	12ff4 <_free_r>

0001365c <_reclaim_reent>:
   1365c:	000157b7          	lui	a5,0x15
   13660:	8347a783          	lw	a5,-1996(a5) # 14834 <_impure_ptr>
   13664:	10a78a63          	beq	a5,a0,13778 <_reclaim_reent+0x11c>
   13668:	04c52583          	lw	a1,76(a0)
   1366c:	fe010113          	addi	sp,sp,-32
   13670:	00912a23          	sw	s1,20(sp)
   13674:	00112e23          	sw	ra,28(sp)
   13678:	00812c23          	sw	s0,24(sp)
   1367c:	01212823          	sw	s2,16(sp)
   13680:	01312623          	sw	s3,12(sp)
   13684:	00050493          	mv	s1,a0
   13688:	04058063          	beqz	a1,136c8 <_reclaim_reent+0x6c>
   1368c:	00000913          	li	s2,0
   13690:	08000993          	li	s3,128
   13694:	012587b3          	add	a5,a1,s2
   13698:	0007a403          	lw	s0,0(a5)
   1369c:	00040e63          	beqz	s0,136b8 <_reclaim_reent+0x5c>
   136a0:	00040593          	mv	a1,s0
   136a4:	00042403          	lw	s0,0(s0)
   136a8:	00048513          	mv	a0,s1
   136ac:	949ff0ef          	jal	ra,12ff4 <_free_r>
   136b0:	fe0418e3          	bnez	s0,136a0 <_reclaim_reent+0x44>
   136b4:	04c4a583          	lw	a1,76(s1)
   136b8:	00490913          	addi	s2,s2,4
   136bc:	fd391ce3          	bne	s2,s3,13694 <_reclaim_reent+0x38>
   136c0:	00048513          	mv	a0,s1
   136c4:	931ff0ef          	jal	ra,12ff4 <_free_r>
   136c8:	0404a583          	lw	a1,64(s1)
   136cc:	00058663          	beqz	a1,136d8 <_reclaim_reent+0x7c>
   136d0:	00048513          	mv	a0,s1
   136d4:	921ff0ef          	jal	ra,12ff4 <_free_r>
   136d8:	1484a403          	lw	s0,328(s1)
   136dc:	02040063          	beqz	s0,136fc <_reclaim_reent+0xa0>
   136e0:	14c48913          	addi	s2,s1,332
   136e4:	01240c63          	beq	s0,s2,136fc <_reclaim_reent+0xa0>
   136e8:	00040593          	mv	a1,s0
   136ec:	00042403          	lw	s0,0(s0)
   136f0:	00048513          	mv	a0,s1
   136f4:	901ff0ef          	jal	ra,12ff4 <_free_r>
   136f8:	fe8918e3          	bne	s2,s0,136e8 <_reclaim_reent+0x8c>
   136fc:	0544a583          	lw	a1,84(s1)
   13700:	00058663          	beqz	a1,1370c <_reclaim_reent+0xb0>
   13704:	00048513          	mv	a0,s1
   13708:	8edff0ef          	jal	ra,12ff4 <_free_r>
   1370c:	0384a783          	lw	a5,56(s1)
   13710:	04078663          	beqz	a5,1375c <_reclaim_reent+0x100>
   13714:	03c4a783          	lw	a5,60(s1)
   13718:	00048513          	mv	a0,s1
   1371c:	000780e7          	jalr	a5
   13720:	2e04a403          	lw	s0,736(s1)
   13724:	02040c63          	beqz	s0,1375c <_reclaim_reent+0x100>
   13728:	00042583          	lw	a1,0(s0)
   1372c:	00058663          	beqz	a1,13738 <_reclaim_reent+0xdc>
   13730:	00048513          	mv	a0,s1
   13734:	e95ff0ef          	jal	ra,135c8 <cleanup_glue>
   13738:	00040593          	mv	a1,s0
   1373c:	01812403          	lw	s0,24(sp)
   13740:	01c12083          	lw	ra,28(sp)
   13744:	01012903          	lw	s2,16(sp)
   13748:	00c12983          	lw	s3,12(sp)
   1374c:	00048513          	mv	a0,s1
   13750:	01412483          	lw	s1,20(sp)
   13754:	02010113          	addi	sp,sp,32
   13758:	89dff06f          	j	12ff4 <_free_r>
   1375c:	01c12083          	lw	ra,28(sp)
   13760:	01812403          	lw	s0,24(sp)
   13764:	01412483          	lw	s1,20(sp)
   13768:	01012903          	lw	s2,16(sp)
   1376c:	00c12983          	lw	s3,12(sp)
   13770:	02010113          	addi	sp,sp,32
   13774:	00008067          	ret
   13778:	00008067          	ret
